
main_F002B.bin:     file format binary


Disassembly of section .data:

08000000 <.data>:
 8000000:	20000000		@ MSP init value = 0x20000000     
 8000004:	080000d5        @ Reset vector 	
 8000008:	080000dd        @ NMI vector
 800000c:	080000df        @ HardFAULT
	...                     
 800002c:	080000e1        @ SVC vector
	...                     
 8000038:	080000e3        @ PendSv vector
 800003c:	080000e5        @ SysTick vector
 8000040:	00000000        @ Int0
	...
 800004c:	080000e7      
 8000050:	080000e7      
 8000054:	080000e7      
 8000058:	080000e7      
 800005c:	080000e7      
	...
 8000070:	080000e7      
 8000074:	080000e7      
 8000078:	080000e7      
	...
 8000084:	080000e7      
 8000088:	00000000      
 800008c:	080000e7      
	...
 800009c:	080000e7      
 80000a0:	00000000      
 80000a4:	080000e7      
 80000a8:	00000000      
 80000ac:	080000e7      
 80000b0:	0000
	...		...
 80000be:	0000	

__init_2: 
 80000c0:	4803      	ldr		r0, [pc, #12]	@ (0x80000d0)
 80000c2:	4685      	mov		sp, r0
 80000c4:	f000 f814 	bl		0x80000f0
__init_4:
 80000c8:	4800      	ldr		r0, [pc, #0]	@ (0x80000cc)
 80000ca:	4700      	bx		r0
 
 80000cc:	08000455
 80000d0:	20000000
__StartUp: 
 80000d4:	4804      	ldr		r0, [pc, #16]	@ (0x80000e8) {0x080001c5}
 80000d6:	4780      	blx		r0
 80000d8:	4804      	ldr		r0, [pc, #16]	@ (0x80000ec) {0x080000c1}
 80000da:	4700      	bx		r0
 
 
 80000dc:	e7fe      	b.n		0x80000dc
 80000de:	e7fe      	b.n		0x80000de
 80000e0:	e7fe      	b.n		0x80000e0
 80000e2:	e7fe      	b.n		0x80000e2
 80000e4:	e7fe      	b.n		0x80000e4
 80000e6:	e7fe      	b.n		0x80000e6

 80000e8:	080001c5
 80000ec:	080000c1
__init_3:
 80000f0:	4c06      	ldr		r4, [pc, #24]	@ (0x800010c)
 80000f2:	2501      	movs	r5, #1
 80000f4:	4e06      	ldr		r6, [pc, #24]	@ (0x8000110)
 80000f6:	e005      	b.n		0x8000104
__mm__00f8: 
 80000f8:	68e3      		ldr		r3, [r4, #12]
 80000fa:	cc07      		ldmia	r4!, {r0, r1, r2}
 80000fc:	432b      		orrs	r3, r5
 80000fe:	3c0c      		subs	r4, #12
 8000100:	4798      		blx		r3
 8000102:	3410      		adds	r4, #16
__mm__0104: 
 8000104:	42b4      		cmp		r4, r6
 8000106:	d3f7      		bcc.n	0x80000f8
 8000108:	f7ff ffde 	bl		0x80000c8
 
 800010c:	08000458     
 8000110:	08000458     

__sub_0114:
 8000114:	4913      	ldr		r1, [pc, #76]	@ (0x8000164)
 8000116:	6b48      	ldr		r0, [r1, #52]	@ 0x34
 8000118:	2207      	movs	r2, #7
 800011a:	4310      	orrs	r0, r2
 800011c:	6348      	str		r0, [r1, #52]	@ 0x34
 800011e:	6348      	str		r0, [r1, #52]	@ 0x34
 8000120:	2005      	movs	r0, #5
 8000122:	0700      	lsls	r0, r0, #28
 8000124:	6801      	ldr		r1, [r0, #0]
 8000126:	2230      	movs	r2, #48			@ 0x30
 8000128:	4391      	bics	r1, r2
 800012a:	6001      	str		r1, [r0, #0]
 800012c:	6801      	ldr		r1, [r0, #0]
 800012e:	2210      	movs	r2, #16
 8000130:	4311      	orrs	r1, r2
 8000132:	6001      	str		r1, [r0, #0]
 8000134:	2300      	movs	r3, #0
 8000136:	60c3      	str		r3, [r0, #12]
 8000138:	490b      	ldr		r1, [pc, #44]	@ (0x8000168)
 800013a:	680a      	ldr		r2, [r1, #0]
 800013c:	2403      	movs	r4, #3
 800013e:	0324      	lsls	r4, r4, #12
 8000140:	43a2      	bics	r2, r4
 8000142:	600a      	str		r2, [r1, #0]
 8000144:	680a      	ldr		r2, [r1, #0]
 8000146:	2401      	movs	r4, #1
 8000148:	0324      	lsls	r4, r4, #12
 800014a:	4322      	orrs	r2, r4
 800014c:	600a      	str		r2, [r1, #0]
 800014e:	60cb      	str		r3, [r1, #12]
 8000150:	6982      	ldr		r2, [r0, #24]
 8000152:	2304      	movs	r3, #4
 8000154:	431a      	orrs	r2, r3
 8000156:	6182      	str		r2, [r0, #24]
 8000158:	6988      	ldr		r0, [r1, #24]
 800015a:	030a      	lsls	r2, r1, #12
 800015c:	4310      	orrs	r0, r2
 800015e:	6188      	str		r0, [r1, #24]
__mm__0160: 
 8000160:	e7fe      	b.n		0x8000160
 
 8000162:	0000     
 8000164:	40021000 
 8000168:	50000400     

__mm__016c: 
 800016c:	4913      	ldr		r1, [pc, #76]	@ (0x80001bc)
 800016e:	6b48      	ldr		r0, [r1, #52]	@ 0x34
 8000170:	2207      	movs	r2, #7
 8000172:	4310      	orrs	r0, r2
 8000174:	6348      	str		r0, [r1, #52]	@ 0x34
 8000176:	6348      	str		r0, [r1, #52]	@ 0x34
 8000178:	2005      	movs	r0, #5
 800017a:	0700      	lsls	r0, r0, #28
 800017c:	6801      	ldr		r1, [r0, #0]
 800017e:	2230      	movs	r2, #48			@ 0x30
 8000180:	4391      	bics	r1, r2
 8000182:	6001      	str		r1, [r0, #0]
 8000184:	6801      	ldr		r1, [r0, #0]
 8000186:	2210      	movs	r2, #16
 8000188:	4311      	orrs	r1, r2
 800018a:	6001      	str		r1, [r0, #0]
 800018c:	2300      	movs	r3, #0
 800018e:	60c3      	str		r3, [r0, #12]
 8000190:	490b      	ldr		r1, [pc, #44]	@ (0x80001c0)
 8000192:	680a      	ldr		r2, [r1, #0]
 8000194:	2403      	movs	r4, #3
 8000196:	0324      	lsls	r4, r4, #12
 8000198:	43a2      	bics	r2, r4
 800019a:	600a      	str		r2, [r1, #0]
 800019c:	680a      	ldr		r2, [r1, #0]
 800019e:	2401      	movs	r4, #1
 80001a0:	0324      	lsls	r4, r4, #12
 80001a2:	4322      	orrs	r2, r4
 80001a4:	600a      	str		r2, [r1, #0]
 80001a6:	60cb      	str		r3, [r1, #12]
 80001a8:	6982      	ldr		r2, [r0, #24]
 80001aa:	2304      	movs	r3, #4
 80001ac:	431a      	orrs	r2, r3
 80001ae:	6182      	str		r2, [r0, #24]
 80001b0:	6988      	ldr		r0, [r1, #24]
 80001b2:	2240      	movs	r2, #64	@ 0x40
 80001b4:	4310      	orrs	r0, r2
 80001b6:	6188      	str		r0, [r1, #24]
__mm__01b8: 
 80001b8:	e7fe      	b.n		0x80001b8
 
 80001ba:	0000   
 80001bc:	40021000  
 80001c0:	50000400  
 
__init_1:
 80001c4:	489c      	ldr		r0, [pc, #624]	@ (0x8000438)
 80001c6:	6841      	ldr		r1, [r0, #4]
 80001c8:	0c09      	lsrs	r1, r1, #16
 80001ca:	0409      	lsls	r1, r1, #16
 80001cc:	6041      	str		r1, [r0, #4]
 80001ce:	6841      	ldr		r1, [r0, #4]
 80001d0:	4a9a      	ldr		r2, [pc, #616]	@ (0x800043c)
 80001d2:	6812      	ldr		r2, [r2, #0]
 80001d4:	b292      	uxth	r2, r2
 80001d6:	4311      	orrs	r1, r2
 80001d8:	6041      	str		r1, [r0, #4]
 80001da:	6b41      	ldr		r1, [r0, #52]	@ 0x34
 80001dc:	2207      	movs	r2, #7
 80001de:	4311      	orrs	r1, r2
 80001e0:	6341      	str		r1, [r0, #52]	@ 0x34
 80001e2:	6341      	str		r1, [r0, #52]	@ 0x34
 80001e4:	4896      	ldr		r0, [pc, #600]	@ (0x8000440)
 80001e6:	6b01      	ldr		r1, [r0, #48]	@ 0x30
 80001e8:	250e      	movs	r5, #14
 80001ea:	4029      	ands	r1, r5
 80001ec:	2705      	movs	r7, #5
 80001ee:	0289      	lsls	r1, r1, #10
 80001f0:	073f      	lsls	r7, r7, #28
 80001f2:	19c9      	adds	r1, r1, r7
 80001f4:	680b      	ldr		r3, [r1, #0]
 80001f6:	6b02      	ldr		r2, [r0, #48]	@ 0x30
 80001f8:	0612      	lsls	r2, r2, #24
 80001fa:	0f12      	lsrs	r2, r2, #28
 80001fc:	0054      	lsls	r4, r2, #1
 80001fe:	2203      	movs	r2, #3
 8000200:	40a2      	lsls	r2, r4
 8000202:	4393      	bics	r3, r2
 8000204:	600b      	str		r3, [r1, #0]
 8000206:	6b01      	ldr		r1, [r0, #48]	@ 0x30
 8000208:	4e8e      	ldr		r6, [pc, #568]	@ (0x8000444)
 800020a:	4029      	ands	r1, r5
 800020c:	0289      	lsls	r1, r1, #10
 800020e:	1989      	adds	r1, r1, r6
 8000210:	680b      	ldr		r3, [r1, #0]
 8000212:	6b02      	ldr		r2, [r0, #48]	@ 0x30
 8000214:	0612      	lsls	r2, r2, #24
 8000216:	0f12      	lsrs	r2, r2, #28
 8000218:	0054      	lsls	r4, r2, #1
 800021a:	2203      	movs	r2, #3
 800021c:	40a2      	lsls	r2, r4
 800021e:	4393      	bics	r3, r2
 8000220:	600b      	str		r3, [r1, #0]
 8000222:	6b01      	ldr		r1, [r0, #48]	@ 0x30
 8000224:	4029      	ands	r1, r5
 8000226:	0289      	lsls	r1, r1, #10
 8000228:	1989      	adds	r1, r1, r6
 800022a:	680a      	ldr		r2, [r1, #0]
 800022c:	6b03      	ldr		r3, [r0, #48]	@ 0x30
 800022e:	061b      	lsls	r3, r3, #24
 8000230:	0f1b      	lsrs	r3, r3, #28
 8000232:	005c      	lsls	r4, r3, #1
 8000234:	2302      	movs	r3, #2
 8000236:	40a3      	lsls	r3, r4
 8000238:	431a      	orrs	r2, r3
 800023a:	600a      	str		r2, [r1, #0]
 800023c:	bf00      	nop
 800023e:	bf00      	nop
 8000240:	bf00      	nop
 8000242:	bf00      	nop
 8000244:	bf00      	nop
 8000246:	bf00      	nop
 8000248:	bf00      	nop
 800024a:	bf00      	nop
 800024c:	bf00      	nop
 800024e:	bf00      	nop
 8000250:	2401      	movs	r4, #1
__mm__0252: 
 8000252:	6b01      		ldr		r1, [r0, #48]	@ 0x30
 8000254:	4029      		ands	r1, r5
 8000256:	0289      		lsls	r1, r1, #10
 8000258:	19c9      		adds	r1, r1, r7
 800025a:	690a      		ldr		r2, [r1, #16]
 800025c:	6b01      		ldr		r1, [r0, #48]	@ 0x30
 800025e:	0609      		lsls	r1, r1, #24
 8000260:	0f0b      		lsrs	r3, r1, #28
 8000262:	4621      		mov		r1, r4
 8000264:	4099      		lsls	r1, r3
 8000266:	400a      		ands	r2, r1
 8000268:	6b01      		ldr		r1, [r0, #48]	@ 0x30
 800026a:	4623      		mov		r3, r4
 800026c:	0609      		lsls	r1, r1, #24
 800026e:	0f09      		lsrs	r1, r1, #28
 8000270:	408b      		lsls	r3, r1
 8000272:	429a      		cmp		r2, r3
 8000274:	d0ed      		beq.n	0x8000252

 8000276:	bf00      	nop
 8000278:	bf00      	nop
 800027a:	bf00      	nop
 800027c:	bf00      	nop
 800027e:	bf00      	nop
 8000280:	bf00      	nop
 8000282:	bf00      	nop
 8000284:	bf00      	nop
 8000286:	bf00      	nop
 8000288:	bf00      	nop
__mm__028a: 
 800028a:	6b01      		ldr		r1, [r0, #48]	@ 0x30
 800028c:	4029      		ands	r1, r5
 800028e:	0289      		lsls	r1, r1, #10
 8000290:	19c9      		adds	r1, r1, r7
 8000292:	690a      		ldr		r2, [r1, #16]
 8000294:	6b01      		ldr		r1, [r0, #48]	@ 0x30
 8000296:	0609      		lsls	r1, r1, #24
 8000298:	0f0b      		lsrs	r3, r1, #28
 800029a:	4621      		mov		r1, r4
 800029c:	4099      		lsls	r1, r3
 800029e:	400a      		ands	r2, r1
 80002a0:	6b01      		ldr		r1, [r0, #48]	@ 0x30
 80002a2:	4623      		mov		r3, r4
 80002a4:	0609      		lsls	r1, r1, #24
 80002a6:	0f09      		lsrs	r1, r1, #28
 80002a8:	408b      		lsls	r3, r1
 80002aa:	429a      		cmp		r2, r3
 80002ac:	d1ed      		bne.n	0x800028a

 80002ae:	bf00      	nop
 80002b0:	bf00      	nop
 80002b2:	bf00      	nop
 80002b4:	bf00      	nop
 80002b6:	bf00      	nop
 80002b8:	bf00      	nop
 80002ba:	bf00      	nop
 80002bc:	bf00      	nop
 80002be:	bf00      	nop
 80002c0:	bf00      	nop
__mm__02c2: 
 80002c2:	6b01      		ldr		r1, [r0, #48]	@ 0x30
 80002c4:	4029      		ands	r1, r5
 80002c6:	0289      		lsls	r1, r1, #10
 80002c8:	19c9      		adds	r1, r1, r7
 80002ca:	690b      		ldr		r3, [r1, #16]
 80002cc:	6b01      		ldr		r1,	[r0, #48]	@ 0x30
 80002ce:	4622      		mov		r2, r4
 80002d0:	0609      		lsls	r1, r1, #24
 80002d2:	0f0e      		lsrs	r6, r1, #28
 80002d4:	40b2      		lsls	r2, r6
 80002d6:	4013      		ands	r3, r2
 80002d8:	6b02      		ldr		r2, [r0, #48]	@ 0x30
 80002da:	4621      		mov		r1, r4
 80002dc:	0612      		lsls	r2, r2, #24
 80002de:	0f12      		lsrs	r2, r2, #28
 80002e0:	4091      		lsls	r1, r2
 80002e2:	428b      		cmp		r3, r1
 80002e4:	d0ed      		beq.n	0x80002c2
 80002e6:	2000      	movs	r0, #0
 80002e8:	43c0      	mvns	r0, r0
 80002ea:	6038      	str		r0, [r7, #0]
 80002ec:	4956      	ldr		r1, [pc, #344]	@ (0x8000448)
 80002ee:	6008      	str		r0, [r1, #0]
 80002f0:	4956      	ldr		r1, [pc, #344]	@ (0x800044c)
 80002f2:	6008      	str		r0, [r1, #0]
 80002f4:	4c56      	ldr		r4, [pc, #344]	@ (0x8000450)
 80002f6:	2601      	movs	r6, #1
 80002f8:	2100      	movs	r1, #0
 80002fa:	0776      	lsls	r6, r6, #29
 80002fc:	0063      	lsls	r3, r4, #1
 80002fe:	2503      	movs	r5, #3
 8000300:	022d      	lsls	r5, r5, #8
__mm__0302: 
 8000302:	0088      		lsls	r0, r1, #2
 8000304:	1980      		adds	r0, r0, r6
 8000306:	6004      		str		r4, [r0, #0]
 8000308:	6043      		str		r3, [r0, #4]
 800030a:	6084      		str		r4, [r0, #8]
 800030c:	60c3      		str		r3, [r0, #12]
 800030e:	6104      		str		r4, [r0, #16]
 8000310:	6143      		str		r3, [r0, #20]
 8000312:	61c3      		str		r3, [r0, #28]
 8000314:	6184      		str		r4, [r0, #24]
 8000316:	6203      		str		r3, [r0, #32]
 8000318:	6244      		str		r4, [r0, #36]	@ 0x24
 800031a:	6283      		str		r3, [r0, #40]	@ 0x28
 800031c:	62c4      		str		r4, [r0, #44]	@ 0x2c
 800031e:	6303      		str		r3, [r0, #48]	@ 0x30
 8000320:	6344      		str		r4, [r0, #52]	@ 0x34
 8000322:	3110      		adds	r1, #16
 8000324:	63c4      		str		r4, [r0, #60]	@ 0x3c
 8000326:	6383      		str		r3, [r0, #56]	@ 0x38
 8000328:	42a9      		cmp		r1, r5
 800032a:	d3ea      		bcc.n	0x8000302
 
 800032c:	2100      	movs	r1, #0
__mm__032e: 
 800032e:	0088      	lsls	r0, r1, #2
 8000330:	1980      	adds	r0, r0, r6
 8000332:	6802      	ldr		r2, [r0, #0]
 8000334:	42a2      	cmp		r2, r4
 8000336:	d172      	bne.n	0x800041e
 
 8000338:	6003      	str		r3, [r0, #0]
 800033a:	6842      	ldr		r2, [r0, #4]
 800033c:	429a      	cmp		r2, r3
 800033e:	d16e      	bne.n	0x800041e
 
 8000340:	6044      	str		r4, [r0, #4]
 8000342:	6882      	ldr		r2, [r0, #8]
 8000344:	42a2      	cmp		r2, r4
 8000346:	d16a      	bne.n	0x800041e
 
 8000348:	6083      	str		r3, [r0, #8]
 800034a:	68c2      	ldr		r2, [r0, #12]
 800034c:	429a      	cmp		r2, r3
 800034e:	d166      	bne.n	0x800041e
 
 8000350:	60c4      	str		r4, [r0, #12]
 8000352:	6902      	ldr		r2, [r0, #16]
 8000354:	42a2      	cmp		r2, r4
 8000356:	d162      	bne.n	0x800041e
 
 8000358:	6103      	str		r3, [r0, #16]
 800035a:	6942      	ldr		r2, [r0, #20]
 800035c:	429a      	cmp		r2, r3
 800035e:	d15e      	bne.n	0x800041e
 
 8000360:	6144      	str		r4, [r0, #20]
 8000362:	6982      	ldr		r2, [r0, #24]
 8000364:	42a2      	cmp		r2, r4
 8000366:	d15a      	bne.n	0x800041e
 
 8000368:	6183      	str		r3, [r0, #24]
 800036a:	69c2      	ldr		r2, [r0, #28]
 800036c:	429a      	cmp		r2, r3
 800036e:	d156      	bne.n	0x800041e
 
 8000370:	61c4      	str		r4, [r0, #28]
 8000372:	6a02      	ldr		r2, [r0, #32]
 8000374:	429a      	cmp		r2, r3
 8000376:	d152      	bne.n	0x800041e
 
 8000378:	6204      	str		r4, [r0, #32]
 800037a:	6a42      	ldr		r2, [r0, #36]	@ 0x24
 800037c:	42a2      	cmp		r2, r4
 800037e:	d14e      	bne.n	0x800041e
 
 8000380:	6243      	str		r3, [r0, #36]	@ 0x24
 8000382:	6a82      	ldr		r2, [r0, #40]	@ 0x28
 8000384:	429a      	cmp		r2, r3
 8000386:	d14a      	bne.n	0x800041e
 
 8000388:	6284      	str		r4, [r0, #40]	@ 0x28
 800038a:	6ac2      	ldr		r2, [r0, #44]	@ 0x2c
 800038c:	42a2      	cmp		r2, r4
 800038e:	d146      	bne.n	0x800041e
 
 8000390:	62c3      	str		r3, [r0, #44]	@ 0x2c
 8000392:	6b02      	ldr		r2, [r0, #48]	@ 0x30
 8000394:	429a      	cmp		r2, r3
 8000396:	d142      	bne.n	0x800041e
 
 8000398:	6304      	str		r4, [r0, #48]	@ 0x30
 800039a:	6b42      	ldr		r2, [r0, #52]	@ 0x34
 800039c:	42a2      	cmp		r2, r4
 800039e:	d13e      	bne.n	0x800041e
 
 80003a0:	6343      	str		r3, [r0, #52]	@ 0x34
 80003a2:	6b82      	ldr		r2, [r0, #56]	@ 0x38
 80003a4:	429a      	cmp		r2, r3
 80003a6:	d13a      	bne.n	0x800041e
 
 80003a8:	6384      	str		r4, [r0, #56]	@ 0x38
 80003aa:	6bc2      	ldr		r2, [r0, #60]	@ 0x3c
 80003ac:	42a2      	cmp		r2, r4
 80003ae:	d136      	bne.n	0x800041e
 
 80003b0:	3110      	adds	r1, #16
 80003b2:	63c3      	str		r3, [r0, #60]	@ 0x3c
 80003b4:	42a9      	cmp		r1, r5
 80003b6:	d3ba      	bcc.n	0x800032e
 
 80003b8:	2100      	movs	r1, #0
__mm__03ba: 
 80003ba:	0088      	lsls	r0, r1, #2
 80003bc:	1980      	adds	r0, r0, r6
 80003be:	6802      	ldr		r2, [r0, #0]
 80003c0:	429a      	cmp		r2, r3
 80003c2:	d12c      	bne.n	0x800041e
 
 80003c4:	6842      	ldr		r2, [r0, #4]
 80003c6:	42a2      	cmp		r2, r4
 80003c8:	d129      	bne.n	0x800041e
 
 80003ca:	6882      	ldr		r2, [r0, #8]
 80003cc:	429a      	cmp		r2, r3
 80003ce:	d126      	bne.n	0x800041e
 
 80003d0:	68c2      	ldr		r2, [r0, #12]
 80003d2:	42a2      	cmp		r2, r4
 80003d4:	d123      	bne.n	0x800041e
 
 80003d6:	6902      	ldr		r2, [r0, #16]
 80003d8:	429a      	cmp		r2, r3
 80003da:	d120      	bne.n	0x800041e
 
 80003dc:	6942      	ldr		r2, [r0, #20]
 80003de:	42a2      	cmp		r2, r4
 80003e0:	d11d      	bne.n	0x800041e
 
 80003e2:	6982      	ldr		r2, [r0, #24]
 80003e4:	429a      	cmp		r2, r3
 80003e6:	d11a      	bne.n	0x800041e
 
 80003e8:	69c2      	ldr		r2, [r0, #28]
 80003ea:	42a2      	cmp		r2, r4
 80003ec:	d117      	bne.n	0x800041e
 
 80003ee:	6a02      	ldr		r2, [r0, #32]
 80003f0:	42a2      	cmp		r2, r4
 80003f2:	d114      	bne.n	0x800041e
 
 80003f4:	6a42      	ldr		r2, [r0, #36]	@ 0x24
 80003f6:	429a      	cmp		r2, r3
 80003f8:	d111      	bne.n	0x800041e
 
 80003fa:	6a82      	ldr		r2, [r0, #40]	@ 0x28
 80003fc:	42a2      	cmp		r2, r4
 80003fe:	d10e      	bne.n	0x800041e
 
 8000400:	6ac2      	ldr		r2, [r0, #44]	@ 0x2c
 8000402:	429a      	cmp		r2, r3
 8000404:	d10b      	bne.n	0x800041e
 
 8000406:	6b02      	ldr		r2, [r0, #48]	@ 0x30
 8000408:	42a2      	cmp		r2, r4
 800040a:	d108      	bne.n	0x800041e
 
 800040c:	6b42      	ldr		r2, [r0, #52]	@ 0x34
 800040e:	429a      	cmp		r2, r3
 8000410:	d105      	bne.n	0x800041e
 
 8000412:	6b82      	ldr		r2, [r0, #56]	@ 0x38
 8000414:	42a2      	cmp		r2, r4
 8000416:	d102      	bne.n	0x800041e
 
 8000418:	6bc0      	ldr		r0, [r0, #60]	@ 0x3c
 800041a:	4298      	cmp		r0, r3
 800041c:	d001      	beq.n	0x8000422
__mm__041e: 
 800041e:	f7ff fe79 	bl		0x8000114
__mm__0422: 
 8000422:	3110      	adds	r1, #16
 8000424:	42a9      	cmp		r1, r5
 8000426:	d3c8      	bcc.n	0x80003ba
 
 8000428:	69b8      	ldr		r0, [r7, #24]
 800042a:	2101      	movs	r1, #1
 800042c:	05c9      	lsls	r1, r1, #23
 800042e:	4308      	orrs	r0, r1
 8000430:	61b8      	str		r0, [r7, #24]
 8000432:	f7ff fe9b 	bl		0x800016c

 8000436:	0000      	
 8000438:	40021000    
 800043c:	1fff0100    
 8000440:	1fff0240    
 8000444:	5000000c    
 8000448:	50000400    
 800044c:	50000800    
 8000450:	55555555
__main: 
 8000454:	e7fe      	b.n	0x8000454

 8000456:	0000      	

 8000458:	ffff ffff 		
 800045c:	ffff ffff 		
