
boot_F040K1B.bin:     file format binary


Disassembly of section .data:

1fff0000 <.data>:
1fff0000:	0780      	lsls	r0, r0, #30
1fff0002:	2000      	movs	r0, #0
1fff0004:	00d5      	lsls	r5, r2, #3
1fff0006:	1fff      	subs	r7, r7, #7
1fff0008:	1b3b      	subs	r3, r7, r4
1fff000a:	1fff      	subs	r7, r7, #7
1fff000c:	1b39      	subs	r1, r7, r4
1fff000e:	1fff      	subs	r7, r7, #7
	...
1fff002c:	1bb9      	subs	r1, r7, r6
1fff002e:	1fff      	subs	r7, r7, #7
	...
1fff0038:	1b9d      	subs	r5, r3, r6
1fff003a:	1fff      	subs	r7, r7, #7
1fff003c:	1bbb      	subs	r3, r7, r6
1fff003e:	1fff      	subs	r7, r7, #7
1fff0040:	00e7      	lsls	r7, r4, #3
1fff0042:	1fff      	subs	r7, r7, #7
1fff0044:	00e7      	lsls	r7, r4, #3
1fff0046:	1fff      	subs	r7, r7, #7
1fff0048:	00e7      	lsls	r7, r4, #3
1fff004a:	1fff      	subs	r7, r7, #7
1fff004c:	00e7      	lsls	r7, r4, #3
1fff004e:	1fff      	subs	r7, r7, #7
1fff0050:	00e7      	lsls	r7, r4, #3
1fff0052:	1fff      	subs	r7, r7, #7
1fff0054:	00e7      	lsls	r7, r4, #3
1fff0056:	1fff      	subs	r7, r7, #7
1fff0058:	00e7      	lsls	r7, r4, #3
1fff005a:	1fff      	subs	r7, r7, #7
1fff005c:	00e7      	lsls	r7, r4, #3
1fff005e:	1fff      	subs	r7, r7, #7
1fff0060:	00e7      	lsls	r7, r4, #3
1fff0062:	1fff      	subs	r7, r7, #7
1fff0064:	00e7      	lsls	r7, r4, #3
1fff0066:	1fff      	subs	r7, r7, #7
1fff0068:	00e7      	lsls	r7, r4, #3
1fff006a:	1fff      	subs	r7, r7, #7
1fff006c:	00e7      	lsls	r7, r4, #3
1fff006e:	1fff      	subs	r7, r7, #7
1fff0070:	00e7      	lsls	r7, r4, #3
1fff0072:	1fff      	subs	r7, r7, #7
1fff0074:	00e7      	lsls	r7, r4, #3
1fff0076:	1fff      	subs	r7, r7, #7
1fff0078:	00e7      	lsls	r7, r4, #3
1fff007a:	1fff      	subs	r7, r7, #7
1fff007c:	00e7      	lsls	r7, r4, #3
1fff007e:	1fff      	subs	r7, r7, #7
1fff0080:	00e7      	lsls	r7, r4, #3
1fff0082:	1fff      	subs	r7, r7, #7
1fff0084:	00e7      	lsls	r7, r4, #3
1fff0086:	1fff      	subs	r7, r7, #7
1fff0088:	00e7      	lsls	r7, r4, #3
1fff008a:	1fff      	subs	r7, r7, #7
1fff008c:	00e7      	lsls	r7, r4, #3
1fff008e:	1fff      	subs	r7, r7, #7
1fff0090:	00e7      	lsls	r7, r4, #3
1fff0092:	1fff      	subs	r7, r7, #7
1fff0094:	00e7      	lsls	r7, r4, #3
1fff0096:	1fff      	subs	r7, r7, #7
1fff0098:	00e7      	lsls	r7, r4, #3
1fff009a:	1fff      	subs	r7, r7, #7
1fff009c:	00e7      	lsls	r7, r4, #3
1fff009e:	1fff      	subs	r7, r7, #7
1fff00a0:	00e7      	lsls	r7, r4, #3
1fff00a2:	1fff      	subs	r7, r7, #7
1fff00a4:	00e7      	lsls	r7, r4, #3
1fff00a6:	1fff      	subs	r7, r7, #7
1fff00a8:	00e7      	lsls	r7, r4, #3
1fff00aa:	1fff      	subs	r7, r7, #7
1fff00ac:	00e7      	lsls	r7, r4, #3
1fff00ae:	1fff      	subs	r7, r7, #7
1fff00b0:	00e7      	lsls	r7, r4, #3
1fff00b2:	1fff      	subs	r7, r7, #7
1fff00b4:	00e7      	lsls	r7, r4, #3
1fff00b6:	1fff      	subs	r7, r7, #7
1fff00b8:	00e7      	lsls	r7, r4, #3
1fff00ba:	1fff      	subs	r7, r7, #7
1fff00bc:	1d69      	adds	r1, r5, #5
1fff00be:	1fff      	subs	r7, r7, #7
1fff00c0:	4803      	ldr	r0, [pc, #12]	@ (0x1fff00d0)
1fff00c2:	4685      	mov	sp, r0
1fff00c4:	f000 f84e 	bl	0x1fff0164
1fff00c8:	4800      	ldr	r0, [pc, #0]	@ (0x1fff00cc)
1fff00ca:	4700      	bx	r0
1fff00cc:	20a1      	movs	r0, #161	@ 0xa1
1fff00ce:	1fff      	subs	r7, r7, #7
1fff00d0:	0780      	lsls	r0, r0, #30
1fff00d2:	2000      	movs	r0, #0
1fff00d4:	4804      	ldr	r0, [pc, #16]	@ (0x1fff00e8)
1fff00d6:	4780      	blx	r0
1fff00d8:	4804      	ldr	r0, [pc, #16]	@ (0x1fff00ec)
1fff00da:	4700      	bx	r0
1fff00dc:	e7fe      	b.n	0x1fff00dc
1fff00de:	e7fe      	b.n	0x1fff00de
1fff00e0:	e7fe      	b.n	0x1fff00e0
1fff00e2:	e7fe      	b.n	0x1fff00e2
1fff00e4:	e7fe      	b.n	0x1fff00e4
1fff00e6:	e7fe      	b.n	0x1fff00e6
1fff00e8:	1bc5      	subs	r5, r0, r7
1fff00ea:	1fff      	subs	r7, r7, #7
1fff00ec:	00c1      	lsls	r1, r0, #3
1fff00ee:	1fff      	subs	r7, r7, #7
1fff00f0:	b530      	push	{r4, r5, lr}
1fff00f2:	460b      	mov	r3, r1
1fff00f4:	4601      	mov	r1, r0
1fff00f6:	2000      	movs	r0, #0
1fff00f8:	2220      	movs	r2, #32
1fff00fa:	2401      	movs	r4, #1
1fff00fc:	e009      	b.n	0x1fff0112
1fff00fe:	460d      	mov	r5, r1
1fff0100:	40d5      	lsrs	r5, r2
1fff0102:	429d      	cmp	r5, r3
1fff0104:	d305      	bcc.n	0x1fff0112
1fff0106:	461d      	mov	r5, r3
1fff0108:	4095      	lsls	r5, r2
1fff010a:	1b49      	subs	r1, r1, r5
1fff010c:	4625      	mov	r5, r4
1fff010e:	4095      	lsls	r5, r2
1fff0110:	1940      	adds	r0, r0, r5
1fff0112:	4615      	mov	r5, r2
1fff0114:	1e52      	subs	r2, r2, #1
1fff0116:	2d00      	cmp	r5, #0
1fff0118:	dcf1      	bgt.n	0x1fff00fe
1fff011a:	bd30      	pop	{r4, r5, pc}
1fff011c:	4603      	mov	r3, r0
1fff011e:	430b      	orrs	r3, r1
1fff0120:	079b      	lsls	r3, r3, #30
1fff0122:	d003      	beq.n	0x1fff012c
1fff0124:	e009      	b.n	0x1fff013a
1fff0126:	c908      	ldmia	r1!, {r3}
1fff0128:	1f12      	subs	r2, r2, #4
1fff012a:	c008      	stmia	r0!, {r3}
1fff012c:	2a04      	cmp	r2, #4
1fff012e:	d2fa      	bcs.n	0x1fff0126
1fff0130:	e003      	b.n	0x1fff013a
1fff0132:	780b      	ldrb	r3, [r1, #0]
1fff0134:	7003      	strb	r3, [r0, #0]
1fff0136:	1c40      	adds	r0, r0, #1
1fff0138:	1c49      	adds	r1, r1, #1
1fff013a:	1e52      	subs	r2, r2, #1
1fff013c:	d2f9      	bcs.n	0x1fff0132
1fff013e:	4770      	bx	lr
1fff0140:	b2d2      	uxtb	r2, r2
1fff0142:	e001      	b.n	0x1fff0148
1fff0144:	7002      	strb	r2, [r0, #0]
1fff0146:	1c40      	adds	r0, r0, #1
1fff0148:	1e49      	subs	r1, r1, #1
1fff014a:	d2fb      	bcs.n	0x1fff0144
1fff014c:	4770      	bx	lr
1fff014e:	2200      	movs	r2, #0
1fff0150:	e7f6      	b.n	0x1fff0140
1fff0152:	b510      	push	{r4, lr}
1fff0154:	4613      	mov	r3, r2
1fff0156:	460a      	mov	r2, r1
1fff0158:	4604      	mov	r4, r0
1fff015a:	4619      	mov	r1, r3
1fff015c:	f7ff fff0 	bl	0x1fff0140
1fff0160:	4620      	mov	r0, r4
1fff0162:	bd10      	pop	{r4, pc}
1fff0164:	4c06      	ldr	r4, [pc, #24]	@ (0x1fff0180)
1fff0166:	2501      	movs	r5, #1
1fff0168:	4e06      	ldr	r6, [pc, #24]	@ (0x1fff0184)
1fff016a:	e005      	b.n	0x1fff0178
1fff016c:	68e3      	ldr	r3, [r4, #12]
1fff016e:	cc07      	ldmia	r4!, {r0, r1, r2}
1fff0170:	432b      	orrs	r3, r5
1fff0172:	3c0c      	subs	r4, #12
1fff0174:	4798      	blx	r3
1fff0176:	3410      	adds	r4, #16
1fff0178:	42b4      	cmp	r4, r6
1fff017a:	d3f7      	bcc.n	0x1fff016c
1fff017c:	f7ff ffa4 	bl	0x1fff00c8
1fff0180:	2e10      	cmp	r6, #16
1fff0182:	1fff      	subs	r7, r7, #7
1fff0184:	2e30      	cmp	r6, #48	@ 0x30
1fff0186:	1fff      	subs	r7, r7, #7
1fff0188:	b530      	push	{r4, r5, lr}
1fff018a:	188c      	adds	r4, r1, r2
1fff018c:	7802      	ldrb	r2, [r0, #0]
1fff018e:	1c40      	adds	r0, r0, #1
1fff0190:	0713      	lsls	r3, r2, #28
1fff0192:	0f1b      	lsrs	r3, r3, #28
1fff0194:	d101      	bne.n	0x1fff019a
1fff0196:	7803      	ldrb	r3, [r0, #0]
1fff0198:	1c40      	adds	r0, r0, #1
1fff019a:	0912      	lsrs	r2, r2, #4
1fff019c:	d106      	bne.n	0x1fff01ac
1fff019e:	7802      	ldrb	r2, [r0, #0]
1fff01a0:	1c40      	adds	r0, r0, #1
1fff01a2:	e003      	b.n	0x1fff01ac
1fff01a4:	7805      	ldrb	r5, [r0, #0]
1fff01a6:	700d      	strb	r5, [r1, #0]
1fff01a8:	1c40      	adds	r0, r0, #1
1fff01aa:	1c49      	adds	r1, r1, #1
1fff01ac:	1e5b      	subs	r3, r3, #1
1fff01ae:	d1f9      	bne.n	0x1fff01a4
1fff01b0:	e001      	b.n	0x1fff01b6
1fff01b2:	700b      	strb	r3, [r1, #0]
1fff01b4:	1c49      	adds	r1, r1, #1
1fff01b6:	1e52      	subs	r2, r2, #1
1fff01b8:	d1fb      	bne.n	0x1fff01b2
1fff01ba:	42a1      	cmp	r1, r4
1fff01bc:	d3e6      	bcc.n	0x1fff018c
1fff01be:	2000      	movs	r0, #0
1fff01c0:	bd30      	pop	{r4, r5, pc}
1fff01c2:	0000      	movs	r0, r0
1fff01c4:	6801      	ldr	r1, [r0, #0]
1fff01c6:	4a06      	ldr	r2, [pc, #24]	@ (0x1fff01e0)
1fff01c8:	4011      	ands	r1, r2
1fff01ca:	2201      	movs	r2, #1
1fff01cc:	0752      	lsls	r2, r2, #29
1fff01ce:	4291      	cmp	r1, r2
1fff01d0:	d104      	bne.n	0x1fff01dc
1fff01d2:	6841      	ldr	r1, [r0, #4]
1fff01d4:	6800      	ldr	r0, [r0, #0]
1fff01d6:	f380 8808 	msr	MSP, r0
1fff01da:	4708      	bx	r1
1fff01dc:	4770      	bx	lr
1fff01de:	0000      	movs	r0, r0
1fff01e0:	0000      	movs	r0, r0
1fff01e2:	2ffe      	cmp	r7, #254	@ 0xfe
1fff01e4:	b5f8      	push	{r3, r4, r5, r6, r7, lr}
1fff01e6:	4d29      	ldr	r5, [pc, #164]	@ (0x1fff028c)
1fff01e8:	4e29      	ldr	r6, [pc, #164]	@ (0x1fff0290)
1fff01ea:	4f2a      	ldr	r7, [pc, #168]	@ (0x1fff0294)
1fff01ec:	4c2a      	ldr	r4, [pc, #168]	@ (0x1fff0298)
1fff01ee:	e028      	b.n	0x1fff0242
1fff01f0:	2000      	movs	r0, #0
1fff01f2:	7028      	strb	r0, [r5, #0]
1fff01f4:	4620      	mov	r0, r4
1fff01f6:	f000 fdfd 	bl	0x1fff0df4
1fff01fa:	e040      	b.n	0x1fff027e
1fff01fc:	6820      	ldr	r0, [r4, #0]
1fff01fe:	2101      	movs	r1, #1
1fff0200:	0309      	lsls	r1, r1, #12
1fff0202:	4308      	orrs	r0, r1
1fff0204:	6020      	str	r0, [r4, #0]
1fff0206:	6870      	ldr	r0, [r6, #4]
1fff0208:	b2c0      	uxtb	r0, r0
1fff020a:	287f      	cmp	r0, #127	@ 0x7f
1fff020c:	d020      	beq.n	0x1fff0250
1fff020e:	6830      	ldr	r0, [r6, #0]
1fff0210:	4308      	orrs	r0, r1
1fff0212:	6030      	str	r0, [r6, #0]
1fff0214:	6878      	ldr	r0, [r7, #4]
1fff0216:	b2c0      	uxtb	r0, r0
1fff0218:	287f      	cmp	r0, #127	@ 0x7f
1fff021a:	d01f      	beq.n	0x1fff025c
1fff021c:	6838      	ldr	r0, [r7, #0]
1fff021e:	4308      	orrs	r0, r1
1fff0220:	6038      	str	r0, [r7, #0]
1fff0222:	481e      	ldr	r0, [pc, #120]	@ (0x1fff029c)
1fff0224:	6842      	ldr	r2, [r0, #4]
1fff0226:	b2d2      	uxtb	r2, r2
1fff0228:	2a7f      	cmp	r2, #127	@ 0x7f
1fff022a:	d01d      	beq.n	0x1fff0268
1fff022c:	6802      	ldr	r2, [r0, #0]
1fff022e:	430a      	orrs	r2, r1
1fff0230:	6002      	str	r2, [r0, #0]
1fff0232:	f000 fbc7 	bl	0x1fff09c4
1fff0236:	2801      	cmp	r0, #1
1fff0238:	d01c      	beq.n	0x1fff0274
1fff023a:	f001 ff11 	bl	0x1fff2060
1fff023e:	2801      	cmp	r0, #1
1fff0240:	d01b      	beq.n	0x1fff027a
1fff0242:	f000 feaf 	bl	0x1fff0fa4
1fff0246:	6860      	ldr	r0, [r4, #4]
1fff0248:	b2c0      	uxtb	r0, r0
1fff024a:	287f      	cmp	r0, #127	@ 0x7f
1fff024c:	d1d6      	bne.n	0x1fff01fc
1fff024e:	e7cf      	b.n	0x1fff01f0
1fff0250:	2001      	movs	r0, #1
1fff0252:	7028      	strb	r0, [r5, #0]
1fff0254:	4630      	mov	r0, r6
1fff0256:	f000 fdcd 	bl	0x1fff0df4
1fff025a:	e010      	b.n	0x1fff027e
1fff025c:	2002      	movs	r0, #2
1fff025e:	7028      	strb	r0, [r5, #0]
1fff0260:	4638      	mov	r0, r7
1fff0262:	f000 fdc7 	bl	0x1fff0df4
1fff0266:	e00a      	b.n	0x1fff027e
1fff0268:	2003      	movs	r0, #3
1fff026a:	7028      	strb	r0, [r5, #0]
1fff026c:	480b      	ldr	r0, [pc, #44]	@ (0x1fff029c)
1fff026e:	f000 fdc1 	bl	0x1fff0df4
1fff0272:	e004      	b.n	0x1fff027e
1fff0274:	2005      	movs	r0, #5
1fff0276:	7028      	strb	r0, [r5, #0]
1fff0278:	e001      	b.n	0x1fff027e
1fff027a:	2004      	movs	r0, #4
1fff027c:	7028      	strb	r0, [r5, #0]
1fff027e:	f000 f99b 	bl	0x1fff05b8
1fff0282:	2079      	movs	r0, #121	@ 0x79
1fff0284:	f000 f960 	bl	0x1fff0548
1fff0288:	bdf8      	pop	{r3, r4, r5, r6, r7, pc}
1fff028a:	0000      	movs	r0, r0
1fff028c:	0018      	movs	r0, r3
1fff028e:	2000      	movs	r0, #0
1fff0290:	4400      	add	r0, r0
1fff0292:	4000      	ands	r0, r0
1fff0294:	4800      	ldr	r0, [pc, #0]	@ (0x1fff0298)
1fff0296:	4000      	ands	r0, r0
1fff0298:	3800      	subs	r0, #0
1fff029a:	4001      	ands	r1, r0
1fff029c:	4c00      	ldr	r4, [pc, #0]	@ (0x1fff02a0)
1fff029e:	4000      	ands	r0, r0
1fff02a0:	b5f0      	push	{r4, r5, r6, r7, lr}
1fff02a2:	b08d      	sub	sp, #52	@ 0x34
1fff02a4:	2601      	movs	r6, #1
1fff02a6:	2400      	movs	r4, #0
1fff02a8:	2102      	movs	r1, #2
1fff02aa:	a804      	add	r0, sp, #16
1fff02ac:	f000 f91a 	bl	0x1fff04e4
1fff02b0:	4668      	mov	r0, sp
1fff02b2:	7c05      	ldrb	r5, [r0, #16]
1fff02b4:	7c40      	ldrb	r0, [r0, #17]
1fff02b6:	4068      	eors	r0, r5
1fff02b8:	28ff      	cmp	r0, #255	@ 0xff
1fff02ba:	d004      	beq.n	0x1fff02c6
1fff02bc:	201f      	movs	r0, #31
1fff02be:	f000 f943 	bl	0x1fff0548
1fff02c2:	b00d      	add	sp, #52	@ 0x34
1fff02c4:	bdf0      	pop	{r4, r5, r6, r7, pc}
1fff02c6:	4f7d      	ldr	r7, [pc, #500]	@ (0x1fff04bc)
1fff02c8:	2d31      	cmp	r5, #49	@ 0x31
1fff02ca:	d01c      	beq.n	0x1fff0306
1fff02cc:	dc0e      	bgt.n	0x1fff02ec
1fff02ce:	2d03      	cmp	r5, #3
1fff02d0:	d021      	beq.n	0x1fff0316
1fff02d2:	dc06      	bgt.n	0x1fff02e2
1fff02d4:	2d00      	cmp	r5, #0
1fff02d6:	d01e      	beq.n	0x1fff0316
1fff02d8:	2d01      	cmp	r5, #1
1fff02da:	d01c      	beq.n	0x1fff0316
1fff02dc:	2d02      	cmp	r5, #2
1fff02de:	d11d      	bne.n	0x1fff031c
1fff02e0:	e019      	b.n	0x1fff0316
1fff02e2:	2d11      	cmp	r5, #17
1fff02e4:	d00f      	beq.n	0x1fff0306
1fff02e6:	2d21      	cmp	r5, #33	@ 0x21
1fff02e8:	d118      	bne.n	0x1fff031c
1fff02ea:	e00c      	b.n	0x1fff0306
1fff02ec:	2d73      	cmp	r5, #115	@ 0x73
1fff02ee:	d00a      	beq.n	0x1fff0306
1fff02f0:	dc04      	bgt.n	0x1fff02fc
1fff02f2:	2d44      	cmp	r5, #68	@ 0x44
1fff02f4:	d007      	beq.n	0x1fff0306
1fff02f6:	2d63      	cmp	r5, #99	@ 0x63
1fff02f8:	d110      	bne.n	0x1fff031c
1fff02fa:	e004      	b.n	0x1fff0306
1fff02fc:	2d82      	cmp	r5, #130	@ 0x82
1fff02fe:	d002      	beq.n	0x1fff0306
1fff0300:	2d92      	cmp	r5, #146	@ 0x92
1fff0302:	d10b      	bne.n	0x1fff031c
1fff0304:	e007      	b.n	0x1fff0316
1fff0306:	6a38      	ldr	r0, [r7, #32]
1fff0308:	b2c0      	uxtb	r0, r0
1fff030a:	28aa      	cmp	r0, #170	@ 0xaa
1fff030c:	d003      	beq.n	0x1fff0316
1fff030e:	201f      	movs	r0, #31
1fff0310:	f000 f91a 	bl	0x1fff0548
1fff0314:	e7d5      	b.n	0x1fff02c2
1fff0316:	2079      	movs	r0, #121	@ 0x79
1fff0318:	f000 f916 	bl	0x1fff0548
1fff031c:	2d73      	cmp	r5, #115	@ 0x73
1fff031e:	d00b      	beq.n	0x1fff0338
1fff0320:	dc06      	bgt.n	0x1fff0330
1fff0322:	2d31      	cmp	r5, #49	@ 0x31
1fff0324:	d008      	beq.n	0x1fff0338
1fff0326:	2d44      	cmp	r5, #68	@ 0x44
1fff0328:	d006      	beq.n	0x1fff0338
1fff032a:	2d63      	cmp	r5, #99	@ 0x63
1fff032c:	d114      	bne.n	0x1fff0358
1fff032e:	e003      	b.n	0x1fff0338
1fff0330:	2d82      	cmp	r5, #130	@ 0x82
1fff0332:	d001      	beq.n	0x1fff0338
1fff0334:	2d92      	cmp	r5, #146	@ 0x92
1fff0336:	d10f      	bne.n	0x1fff0358
1fff0338:	6938      	ldr	r0, [r7, #16]
1fff033a:	03c0      	lsls	r0, r0, #15
1fff033c:	d503      	bpl.n	0x1fff0346
1fff033e:	201f      	movs	r0, #31
1fff0340:	f000 f902 	bl	0x1fff0548
1fff0344:	e7bd      	b.n	0x1fff02c2
1fff0346:	6978      	ldr	r0, [r7, #20]
1fff0348:	2800      	cmp	r0, #0
1fff034a:	da05      	bge.n	0x1fff0358
1fff034c:	485c      	ldr	r0, [pc, #368]	@ (0x1fff04c0)
1fff034e:	60b8      	str	r0, [r7, #8]
1fff0350:	485c      	ldr	r0, [pc, #368]	@ (0x1fff04c4)
1fff0352:	60b8      	str	r0, [r7, #8]
1fff0354:	f000 fc24 	bl	0x1fff0ba0
1fff0358:	2000      	movs	r0, #0
1fff035a:	2d31      	cmp	r5, #49	@ 0x31
1fff035c:	d05f      	beq.n	0x1fff041e
1fff035e:	dc10      	bgt.n	0x1fff0382
1fff0360:	2201      	movs	r2, #1
1fff0362:	2d03      	cmp	r5, #3
1fff0364:	d045      	beq.n	0x1fff03f2
1fff0366:	dc07      	bgt.n	0x1fff0378
1fff0368:	2110      	movs	r1, #16
1fff036a:	2d00      	cmp	r5, #0
1fff036c:	d022      	beq.n	0x1fff03b4
1fff036e:	2d01      	cmp	r5, #1
1fff0370:	d031      	beq.n	0x1fff03d6
1fff0372:	2d02      	cmp	r5, #2
1fff0374:	d113      	bne.n	0x1fff039e
1fff0376:	e034      	b.n	0x1fff03e2
1fff0378:	2d11      	cmp	r5, #17
1fff037a:	d046      	beq.n	0x1fff040a
1fff037c:	2d21      	cmp	r5, #33	@ 0x21
1fff037e:	d10e      	bne.n	0x1fff039e
1fff0380:	e049      	b.n	0x1fff0416
1fff0382:	231f      	movs	r3, #31
1fff0384:	21ff      	movs	r1, #255	@ 0xff
1fff0386:	2d73      	cmp	r5, #115	@ 0x73
1fff0388:	d055      	beq.n	0x1fff0436
1fff038a:	dc04      	bgt.n	0x1fff0396
1fff038c:	2d44      	cmp	r5, #68	@ 0x44
1fff038e:	d04a      	beq.n	0x1fff0426
1fff0390:	2d63      	cmp	r5, #99	@ 0x63
1fff0392:	d104      	bne.n	0x1fff039e
1fff0394:	e04b      	b.n	0x1fff042e
1fff0396:	2d82      	cmp	r5, #130	@ 0x82
1fff0398:	d05a      	beq.n	0x1fff0450
1fff039a:	2d92      	cmp	r5, #146	@ 0x92
1fff039c:	d063      	beq.n	0x1fff0466
1fff039e:	2600      	movs	r6, #0
1fff03a0:	2d73      	cmp	r5, #115	@ 0x73
1fff03a2:	d078      	beq.n	0x1fff0496
1fff03a4:	dc73      	bgt.n	0x1fff048e
1fff03a6:	2d31      	cmp	r5, #49	@ 0x31
1fff03a8:	d075      	beq.n	0x1fff0496
1fff03aa:	2d44      	cmp	r5, #68	@ 0x44
1fff03ac:	d073      	beq.n	0x1fff0496
1fff03ae:	2d63      	cmp	r5, #99	@ 0x63
1fff03b0:	d176      	bne.n	0x1fff04a0
1fff03b2:	e070      	b.n	0x1fff0496
1fff03b4:	230c      	movs	r3, #12
1fff03b6:	4668      	mov	r0, sp
1fff03b8:	466a      	mov	r2, sp
1fff03ba:	7003      	strb	r3, [r0, #0]
1fff03bc:	2402      	movs	r4, #2
1fff03be:	7041      	strb	r1, [r0, #1]
1fff03c0:	2000      	movs	r0, #0
1fff03c2:	4941      	ldr	r1, [pc, #260]	@ (0x1fff04c8)
1fff03c4:	4623      	mov	r3, r4
1fff03c6:	5c09      	ldrb	r1, [r1, r0]
1fff03c8:	1c64      	adds	r4, r4, #1
1fff03ca:	54d1      	strb	r1, [r2, r3]
1fff03cc:	1c40      	adds	r0, r0, #1
1fff03ce:	b2c0      	uxtb	r0, r0
1fff03d0:	280c      	cmp	r0, #12
1fff03d2:	d3f6      	bcc.n	0x1fff03c2
1fff03d4:	e7e4      	b.n	0x1fff03a0
1fff03d6:	466a      	mov	r2, sp
1fff03d8:	7011      	strb	r1, [r2, #0]
1fff03da:	7050      	strb	r0, [r2, #1]
1fff03dc:	2403      	movs	r4, #3
1fff03de:	7090      	strb	r0, [r2, #2]
1fff03e0:	e7de      	b.n	0x1fff03a0
1fff03e2:	4669      	mov	r1, sp
1fff03e4:	700a      	strb	r2, [r1, #0]
1fff03e6:	2004      	movs	r0, #4
1fff03e8:	7048      	strb	r0, [r1, #1]
1fff03ea:	2048      	movs	r0, #72	@ 0x48
1fff03ec:	2403      	movs	r4, #3
1fff03ee:	7088      	strb	r0, [r1, #2]
1fff03f0:	e7d6      	b.n	0x1fff03a0
1fff03f2:	4669      	mov	r1, sp
1fff03f4:	700a      	strb	r2, [r1, #0]
1fff03f6:	4835      	ldr	r0, [pc, #212]	@ (0x1fff04cc)
1fff03f8:	6801      	ldr	r1, [r0, #0]
1fff03fa:	0509      	lsls	r1, r1, #20
1fff03fc:	0f0a      	lsrs	r2, r1, #28
1fff03fe:	4669      	mov	r1, sp
1fff0400:	704a      	strb	r2, [r1, #1]
1fff0402:	6800      	ldr	r0, [r0, #0]
1fff0404:	2403      	movs	r4, #3
1fff0406:	7088      	strb	r0, [r1, #2]
1fff0408:	e7ca      	b.n	0x1fff03a0
1fff040a:	f000 fb83 	bl	0x1fff0b14
1fff040e:	4606      	mov	r6, r0
1fff0410:	2e01      	cmp	r6, #1
1fff0412:	d097      	beq.n	0x1fff0344
1fff0414:	e7c4      	b.n	0x1fff03a0
1fff0416:	f000 f9f7 	bl	0x1fff0808
1fff041a:	4606      	mov	r6, r0
1fff041c:	e7c0      	b.n	0x1fff03a0
1fff041e:	f000 fe41 	bl	0x1fff10a4
1fff0422:	4606      	mov	r6, r0
1fff0424:	e7bc      	b.n	0x1fff03a0
1fff0426:	f000 f98f 	bl	0x1fff0748
1fff042a:	4606      	mov	r6, r0
1fff042c:	e7b8      	b.n	0x1fff03a0
1fff042e:	f000 fefb 	bl	0x1fff1228
1fff0432:	4606      	mov	r6, r0
1fff0434:	e7b4      	b.n	0x1fff03a0
1fff0436:	466a      	mov	r2, sp
1fff0438:	7413      	strb	r3, [r2, #16]
1fff043a:	7450      	strb	r0, [r2, #17]
1fff043c:	aa08      	add	r2, sp, #32
1fff043e:	7011      	strb	r1, [r2, #0]
1fff0440:	7051      	strb	r1, [r2, #1]
1fff0442:	2211      	movs	r2, #17
1fff0444:	a904      	add	r1, sp, #16
1fff0446:	4822      	ldr	r0, [pc, #136]	@ (0x1fff04d0)
1fff0448:	f000 fe72 	bl	0x1fff1130
1fff044c:	4606      	mov	r6, r0
1fff044e:	e7a7      	b.n	0x1fff03a0
1fff0450:	2055      	movs	r0, #85	@ 0x55
1fff0452:	4669      	mov	r1, sp
1fff0454:	7408      	strb	r0, [r1, #16]
1fff0456:	481e      	ldr	r0, [pc, #120]	@ (0x1fff04d0)
1fff0458:	2200      	movs	r2, #0
1fff045a:	a904      	add	r1, sp, #16
1fff045c:	3808      	subs	r0, #8
1fff045e:	f000 fe67 	bl	0x1fff1130
1fff0462:	4606      	mov	r6, r0
1fff0464:	e79c      	b.n	0x1fff03a0
1fff0466:	26aa      	movs	r6, #170	@ 0xaa
1fff0468:	466a      	mov	r2, sp
1fff046a:	7416      	strb	r6, [r2, #16]
1fff046c:	26d8      	movs	r6, #216	@ 0xd8
1fff046e:	7456      	strb	r6, [r2, #17]
1fff0470:	7613      	strb	r3, [r2, #24]
1fff0472:	7650      	strb	r0, [r2, #25]
1fff0474:	aa08      	add	r2, sp, #32
1fff0476:	7211      	strb	r1, [r2, #8]
1fff0478:	7251      	strb	r1, [r2, #9]
1fff047a:	4815      	ldr	r0, [pc, #84]	@ (0x1fff04d0)
1fff047c:	221f      	movs	r2, #31
1fff047e:	a904      	add	r1, sp, #16
1fff0480:	3808      	subs	r0, #8
1fff0482:	f000 fe55 	bl	0x1fff1130
1fff0486:	4606      	mov	r6, r0
1fff0488:	e78a      	b.n	0x1fff03a0
1fff048a:	e000      	b.n	0x1fff048e
1fff048c:	e008      	b.n	0x1fff04a0
1fff048e:	2d82      	cmp	r5, #130	@ 0x82
1fff0490:	d001      	beq.n	0x1fff0496
1fff0492:	2d92      	cmp	r5, #146	@ 0x92
1fff0494:	d104      	bne.n	0x1fff04a0
1fff0496:	6978      	ldr	r0, [r7, #20]
1fff0498:	2101      	movs	r1, #1
1fff049a:	07c9      	lsls	r1, r1, #31
1fff049c:	4308      	orrs	r0, r1
1fff049e:	6178      	str	r0, [r7, #20]
1fff04a0:	2e01      	cmp	r6, #1
1fff04a2:	d008      	beq.n	0x1fff04b6
1fff04a4:	201f      	movs	r0, #31
1fff04a6:	466a      	mov	r2, sp
1fff04a8:	1c61      	adds	r1, r4, #1
1fff04aa:	5510      	strb	r0, [r2, r4]
1fff04ac:	b289      	uxth	r1, r1
1fff04ae:	4668      	mov	r0, sp
1fff04b0:	f000 f850 	bl	0x1fff0554
1fff04b4:	e705      	b.n	0x1fff02c2
1fff04b6:	2079      	movs	r0, #121	@ 0x79
1fff04b8:	e7f5      	b.n	0x1fff04a6
1fff04ba:	0000      	movs	r0, r0
1fff04bc:	2000      	movs	r0, #0
1fff04be:	4002      	ands	r2, r0
1fff04c0:	0123      	lsls	r3, r4, #4
1fff04c2:	4567      	cmp	r7, ip
1fff04c4:	89ab      	ldrh	r3, [r5, #12]
1fff04c6:	cdef      	ldmia	r5, {r0, r1, r2, r3, r5, r6, r7}
1fff04c8:	2dce      	cmp	r5, #206	@ 0xce
1fff04ca:	1fff      	subs	r7, r7, #7
1fff04cc:	5800      	ldr	r0, [r0, r0]
1fff04ce:	4001      	ands	r1, r0
1fff04d0:	3108      	adds	r1, #8
1fff04d2:	1fff      	subs	r7, r7, #7
1fff04d4:	b508      	push	{r3, lr}
1fff04d6:	2101      	movs	r1, #1
1fff04d8:	4668      	mov	r0, sp
1fff04da:	f000 f803 	bl	0x1fff04e4
1fff04de:	4668      	mov	r0, sp
1fff04e0:	7800      	ldrb	r0, [r0, #0]
1fff04e2:	bd08      	pop	{r3, pc}
1fff04e4:	b510      	push	{r4, lr}
1fff04e6:	4a13      	ldr	r2, [pc, #76]	@ (0x1fff0534)
1fff04e8:	7812      	ldrb	r2, [r2, #0]
1fff04ea:	0013      	movs	r3, r2
1fff04ec:	f001 fc40 	bl	0x1fff1d70
1fff04f0:	0406      	lsls	r6, r0, #16
1fff04f2:	100a      	asrs	r2, r1, #32
1fff04f4:	1c16      	adds	r6, r2, #0
1fff04f6:	091f      	lsrs	r7, r3, #4
1fff04f8:	460a      	mov	r2, r1
1fff04fa:	4601      	mov	r1, r0
1fff04fc:	480e      	ldr	r0, [pc, #56]	@ (0x1fff0538)
1fff04fe:	f000 fcd9 	bl	0x1fff0eb4
1fff0502:	bd10      	pop	{r4, pc}
1fff0504:	460a      	mov	r2, r1
1fff0506:	4601      	mov	r1, r0
1fff0508:	480c      	ldr	r0, [pc, #48]	@ (0x1fff053c)
1fff050a:	f000 fcd3 	bl	0x1fff0eb4
1fff050e:	bd10      	pop	{r4, pc}
1fff0510:	460a      	mov	r2, r1
1fff0512:	4601      	mov	r1, r0
1fff0514:	480a      	ldr	r0, [pc, #40]	@ (0x1fff0540)
1fff0516:	f000 fccd 	bl	0x1fff0eb4
1fff051a:	bd10      	pop	{r4, pc}
1fff051c:	460a      	mov	r2, r1
1fff051e:	4601      	mov	r1, r0
1fff0520:	4808      	ldr	r0, [pc, #32]	@ (0x1fff0544)
1fff0522:	f000 fcc7 	bl	0x1fff0eb4
1fff0526:	bd10      	pop	{r4, pc}
1fff0528:	f001 fd28 	bl	0x1fff1f7c
1fff052c:	bd10      	pop	{r4, pc}
1fff052e:	f000 f9cf 	bl	0x1fff08d0
1fff0532:	bd10      	pop	{r4, pc}
1fff0534:	0018      	movs	r0, r3
1fff0536:	2000      	movs	r0, #0
1fff0538:	3800      	subs	r0, #0
1fff053a:	4001      	ands	r1, r0
1fff053c:	4400      	add	r0, r0
1fff053e:	4000      	ands	r0, r0
1fff0540:	4800      	ldr	r0, [pc, #0]	@ (0x1fff0544)
1fff0542:	4000      	ands	r0, r0
1fff0544:	4c00      	ldr	r4, [pc, #0]	@ (0x1fff0548)
1fff0546:	4000      	ands	r0, r0
1fff0548:	b501      	push	{r0, lr}
1fff054a:	2101      	movs	r1, #1
1fff054c:	4668      	mov	r0, sp
1fff054e:	f000 f801 	bl	0x1fff0554
1fff0552:	bd08      	pop	{r3, pc}
1fff0554:	b510      	push	{r4, lr}
1fff0556:	4a13      	ldr	r2, [pc, #76]	@ (0x1fff05a4)
1fff0558:	7812      	ldrb	r2, [r2, #0]
1fff055a:	0013      	movs	r3, r2
1fff055c:	f001 fc08 	bl	0x1fff1d70
1fff0560:	0406      	lsls	r6, r0, #16
1fff0562:	100a      	asrs	r2, r1, #32
1fff0564:	1c16      	adds	r6, r2, #0
1fff0566:	091f      	lsrs	r7, r3, #4
1fff0568:	460a      	mov	r2, r1
1fff056a:	4601      	mov	r1, r0
1fff056c:	480e      	ldr	r0, [pc, #56]	@ (0x1fff05a8)
1fff056e:	f000 fcb4 	bl	0x1fff0eda
1fff0572:	bd10      	pop	{r4, pc}
1fff0574:	460a      	mov	r2, r1
1fff0576:	4601      	mov	r1, r0
1fff0578:	480c      	ldr	r0, [pc, #48]	@ (0x1fff05ac)
1fff057a:	f000 fcae 	bl	0x1fff0eda
1fff057e:	bd10      	pop	{r4, pc}
1fff0580:	460a      	mov	r2, r1
1fff0582:	4601      	mov	r1, r0
1fff0584:	480a      	ldr	r0, [pc, #40]	@ (0x1fff05b0)
1fff0586:	f000 fca8 	bl	0x1fff0eda
1fff058a:	bd10      	pop	{r4, pc}
1fff058c:	460a      	mov	r2, r1
1fff058e:	4601      	mov	r1, r0
1fff0590:	4808      	ldr	r0, [pc, #32]	@ (0x1fff05b4)
1fff0592:	f000 fca2 	bl	0x1fff0eda
1fff0596:	bd10      	pop	{r4, pc}
1fff0598:	f001 fd20 	bl	0x1fff1fdc
1fff059c:	bd10      	pop	{r4, pc}
1fff059e:	f000 f9d5 	bl	0x1fff094c
1fff05a2:	bd10      	pop	{r4, pc}
1fff05a4:	0018      	movs	r0, r3
1fff05a6:	2000      	movs	r0, #0
1fff05a8:	3800      	subs	r0, #0
1fff05aa:	4001      	ands	r1, r0
1fff05ac:	4400      	add	r0, r0
1fff05ae:	4000      	ands	r0, r0
1fff05b0:	4800      	ldr	r0, [pc, #0]	@ (0x1fff05b4)
1fff05b2:	4000      	ands	r0, r0
1fff05b4:	4c00      	ldr	r4, [pc, #0]	@ (0x1fff05b8)
1fff05b6:	4000      	ands	r0, r0
1fff05b8:	b570      	push	{r4, r5, r6, lr}
1fff05ba:	4861      	ldr	r0, [pc, #388]	@ (0x1fff0740)
1fff05bc:	4a61      	ldr	r2, [pc, #388]	@ (0x1fff0744)
1fff05be:	7806      	ldrb	r6, [r0, #0]
1fff05c0:	2101      	movs	r1, #1
1fff05c2:	2505      	movs	r5, #5
1fff05c4:	485f      	ldr	r0, [pc, #380]	@ (0x1fff0744)
1fff05c6:	2406      	movs	r4, #6
1fff05c8:	3240      	adds	r2, #64	@ 0x40
1fff05ca:	0389      	lsls	r1, r1, #14
1fff05cc:	0033      	movs	r3, r6
1fff05ce:	f001 fbcf 	bl	0x1fff1d70
1fff05d2:	0406      	lsls	r6, r0, #16
1fff05d4:	391a      	subs	r1, #26
1fff05d6:	9858      	ldr	r0, [sp, #352]	@ 0x160
1fff05d8:	1979      	adds	r1, r7, r5
1fff05da:	6b41      	ldr	r1, [r0, #52]	@ 0x34
1fff05dc:	43a1      	bics	r1, r4
1fff05de:	6341      	str	r1, [r0, #52]	@ 0x34
1fff05e0:	6bc2      	ldr	r2, [r0, #60]	@ 0x3c
1fff05e2:	2157      	movs	r1, #87	@ 0x57
1fff05e4:	0449      	lsls	r1, r1, #17
1fff05e6:	438a      	bics	r2, r1
1fff05e8:	63c2      	str	r2, [r0, #60]	@ 0x3c
1fff05ea:	6a42      	ldr	r2, [r0, #36]	@ 0x24
1fff05ec:	4322      	orrs	r2, r4
1fff05ee:	6242      	str	r2, [r0, #36]	@ 0x24
1fff05f0:	6ac2      	ldr	r2, [r0, #44]	@ 0x2c
1fff05f2:	430a      	orrs	r2, r1
1fff05f4:	62c2      	str	r2, [r0, #44]	@ 0x2c
1fff05f6:	6a42      	ldr	r2, [r0, #36]	@ 0x24
1fff05f8:	43a2      	bics	r2, r4
1fff05fa:	6242      	str	r2, [r0, #36]	@ 0x24
1fff05fc:	6ac2      	ldr	r2, [r0, #44]	@ 0x2c
1fff05fe:	438a      	bics	r2, r1
1fff0600:	62c2      	str	r2, [r0, #44]	@ 0x2c
1fff0602:	b672      	cpsid	i
1fff0604:	bd70      	pop	{r4, r5, r6, pc}
1fff0606:	6b43      	ldr	r3, [r0, #52]	@ 0x34
1fff0608:	43a3      	bics	r3, r4
1fff060a:	6343      	str	r3, [r0, #52]	@ 0x34
1fff060c:	6bc5      	ldr	r5, [r0, #60]	@ 0x3c
1fff060e:	232b      	movs	r3, #43	@ 0x2b
1fff0610:	049b      	lsls	r3, r3, #18
1fff0612:	439d      	bics	r5, r3
1fff0614:	63c5      	str	r5, [r0, #60]	@ 0x3c
1fff0616:	6815      	ldr	r5, [r2, #0]
1fff0618:	438d      	bics	r5, r1
1fff061a:	6015      	str	r5, [r2, #0]
1fff061c:	6a42      	ldr	r2, [r0, #36]	@ 0x24
1fff061e:	4322      	orrs	r2, r4
1fff0620:	6242      	str	r2, [r0, #36]	@ 0x24
1fff0622:	6ac2      	ldr	r2, [r0, #44]	@ 0x2c
1fff0624:	431a      	orrs	r2, r3
1fff0626:	62c2      	str	r2, [r0, #44]	@ 0x2c
1fff0628:	6b02      	ldr	r2, [r0, #48]	@ 0x30
1fff062a:	430a      	orrs	r2, r1
1fff062c:	6302      	str	r2, [r0, #48]	@ 0x30
1fff062e:	6a42      	ldr	r2, [r0, #36]	@ 0x24
1fff0630:	43a2      	bics	r2, r4
1fff0632:	6242      	str	r2, [r0, #36]	@ 0x24
1fff0634:	6ac2      	ldr	r2, [r0, #44]	@ 0x2c
1fff0636:	439a      	bics	r2, r3
1fff0638:	62c2      	str	r2, [r0, #44]	@ 0x2c
1fff063a:	6b02      	ldr	r2, [r0, #48]	@ 0x30
1fff063c:	438a      	bics	r2, r1
1fff063e:	6302      	str	r2, [r0, #48]	@ 0x30
1fff0640:	b672      	cpsid	i
1fff0642:	bd70      	pop	{r4, r5, r6, pc}
1fff0644:	6b43      	ldr	r3, [r0, #52]	@ 0x34
1fff0646:	43ab      	bics	r3, r5
1fff0648:	6343      	str	r3, [r0, #52]	@ 0x34
1fff064a:	6bc4      	ldr	r4, [r0, #60]	@ 0x3c
1fff064c:	2355      	movs	r3, #85	@ 0x55
1fff064e:	045b      	lsls	r3, r3, #17
1fff0650:	439c      	bics	r4, r3
1fff0652:	63c4      	str	r4, [r0, #60]	@ 0x3c
1fff0654:	6814      	ldr	r4, [r2, #0]
1fff0656:	438c      	bics	r4, r1
1fff0658:	6014      	str	r4, [r2, #0]
1fff065a:	6a42      	ldr	r2, [r0, #36]	@ 0x24
1fff065c:	432a      	orrs	r2, r5
1fff065e:	6242      	str	r2, [r0, #36]	@ 0x24
1fff0660:	6ac2      	ldr	r2, [r0, #44]	@ 0x2c
1fff0662:	431a      	orrs	r2, r3
1fff0664:	62c2      	str	r2, [r0, #44]	@ 0x2c
1fff0666:	6b02      	ldr	r2, [r0, #48]	@ 0x30
1fff0668:	430a      	orrs	r2, r1
1fff066a:	6302      	str	r2, [r0, #48]	@ 0x30
1fff066c:	6a42      	ldr	r2, [r0, #36]	@ 0x24
1fff066e:	43aa      	bics	r2, r5
1fff0670:	6242      	str	r2, [r0, #36]	@ 0x24
1fff0672:	6ac2      	ldr	r2, [r0, #44]	@ 0x2c
1fff0674:	439a      	bics	r2, r3
1fff0676:	62c2      	str	r2, [r0, #44]	@ 0x2c
1fff0678:	6b02      	ldr	r2, [r0, #48]	@ 0x30
1fff067a:	438a      	bics	r2, r1
1fff067c:	6302      	str	r2, [r0, #48]	@ 0x30
1fff067e:	b672      	cpsid	i
1fff0680:	bd70      	pop	{r4, r5, r6, pc}
1fff0682:	6b43      	ldr	r3, [r0, #52]	@ 0x34
1fff0684:	089b      	lsrs	r3, r3, #2
1fff0686:	009b      	lsls	r3, r3, #2
1fff0688:	6343      	str	r3, [r0, #52]	@ 0x34
1fff068a:	6bc4      	ldr	r4, [r0, #60]	@ 0x3c
1fff068c:	2353      	movs	r3, #83	@ 0x53
1fff068e:	045b      	lsls	r3, r3, #17
1fff0690:	439c      	bics	r4, r3
1fff0692:	63c4      	str	r4, [r0, #60]	@ 0x3c
1fff0694:	6814      	ldr	r4, [r2, #0]
1fff0696:	438c      	bics	r4, r1
1fff0698:	6014      	str	r4, [r2, #0]
1fff069a:	6a42      	ldr	r2, [r0, #36]	@ 0x24
1fff069c:	2403      	movs	r4, #3
1fff069e:	4322      	orrs	r2, r4
1fff06a0:	6242      	str	r2, [r0, #36]	@ 0x24
1fff06a2:	6ac2      	ldr	r2, [r0, #44]	@ 0x2c
1fff06a4:	431a      	orrs	r2, r3
1fff06a6:	62c2      	str	r2, [r0, #44]	@ 0x2c
1fff06a8:	6b02      	ldr	r2, [r0, #48]	@ 0x30
1fff06aa:	430a      	orrs	r2, r1
1fff06ac:	6302      	str	r2, [r0, #48]	@ 0x30
1fff06ae:	6a42      	ldr	r2, [r0, #36]	@ 0x24
1fff06b0:	43a2      	bics	r2, r4
1fff06b2:	6242      	str	r2, [r0, #36]	@ 0x24
1fff06b4:	6ac2      	ldr	r2, [r0, #44]	@ 0x2c
1fff06b6:	439a      	bics	r2, r3
1fff06b8:	62c2      	str	r2, [r0, #44]	@ 0x2c
1fff06ba:	6b02      	ldr	r2, [r0, #48]	@ 0x30
1fff06bc:	438a      	bics	r2, r1
1fff06be:	6302      	str	r2, [r0, #48]	@ 0x30
1fff06c0:	b672      	cpsid	i
1fff06c2:	bd70      	pop	{r4, r5, r6, pc}
1fff06c4:	6b43      	ldr	r3, [r0, #52]	@ 0x34
1fff06c6:	43ab      	bics	r3, r5
1fff06c8:	6343      	str	r3, [r0, #52]	@ 0x34
1fff06ca:	6bc4      	ldr	r4, [r0, #60]	@ 0x3c
1fff06cc:	2347      	movs	r3, #71	@ 0x47
1fff06ce:	045b      	lsls	r3, r3, #17
1fff06d0:	439c      	bics	r4, r3
1fff06d2:	63c4      	str	r4, [r0, #60]	@ 0x3c
1fff06d4:	6814      	ldr	r4, [r2, #0]
1fff06d6:	438c      	bics	r4, r1
1fff06d8:	6014      	str	r4, [r2, #0]
1fff06da:	6a42      	ldr	r2, [r0, #36]	@ 0x24
1fff06dc:	432a      	orrs	r2, r5
1fff06de:	6242      	str	r2, [r0, #36]	@ 0x24
1fff06e0:	6ac2      	ldr	r2, [r0, #44]	@ 0x2c
1fff06e2:	431a      	orrs	r2, r3
1fff06e4:	62c2      	str	r2, [r0, #44]	@ 0x2c
1fff06e6:	6b02      	ldr	r2, [r0, #48]	@ 0x30
1fff06e8:	430a      	orrs	r2, r1
1fff06ea:	6302      	str	r2, [r0, #48]	@ 0x30
1fff06ec:	6a42      	ldr	r2, [r0, #36]	@ 0x24
1fff06ee:	43aa      	bics	r2, r5
1fff06f0:	6242      	str	r2, [r0, #36]	@ 0x24
1fff06f2:	6ac2      	ldr	r2, [r0, #44]	@ 0x2c
1fff06f4:	439a      	bics	r2, r3
1fff06f6:	62c2      	str	r2, [r0, #44]	@ 0x2c
1fff06f8:	6b02      	ldr	r2, [r0, #48]	@ 0x30
1fff06fa:	438a      	bics	r2, r1
1fff06fc:	6302      	str	r2, [r0, #48]	@ 0x30
1fff06fe:	b672      	cpsid	i
1fff0700:	bd70      	pop	{r4, r5, r6, pc}
1fff0702:	6b43      	ldr	r3, [r0, #52]	@ 0x34
1fff0704:	43a3      	bics	r3, r4
1fff0706:	6343      	str	r3, [r0, #52]	@ 0x34
1fff0708:	6bc5      	ldr	r5, [r0, #60]	@ 0x3c
1fff070a:	2317      	movs	r3, #23
1fff070c:	045b      	lsls	r3, r3, #17
1fff070e:	439d      	bics	r5, r3
1fff0710:	63c5      	str	r5, [r0, #60]	@ 0x3c
1fff0712:	6815      	ldr	r5, [r2, #0]
1fff0714:	438d      	bics	r5, r1
1fff0716:	6015      	str	r5, [r2, #0]
1fff0718:	6a42      	ldr	r2, [r0, #36]	@ 0x24
1fff071a:	4322      	orrs	r2, r4
1fff071c:	6242      	str	r2, [r0, #36]	@ 0x24
1fff071e:	6ac2      	ldr	r2, [r0, #44]	@ 0x2c
1fff0720:	431a      	orrs	r2, r3
1fff0722:	62c2      	str	r2, [r0, #44]	@ 0x2c
1fff0724:	6b02      	ldr	r2, [r0, #48]	@ 0x30
1fff0726:	430a      	orrs	r2, r1
1fff0728:	6302      	str	r2, [r0, #48]	@ 0x30
1fff072a:	6a42      	ldr	r2, [r0, #36]	@ 0x24
1fff072c:	43a2      	bics	r2, r4
1fff072e:	6242      	str	r2, [r0, #36]	@ 0x24
1fff0730:	6ac2      	ldr	r2, [r0, #44]	@ 0x2c
1fff0732:	439a      	bics	r2, r3
1fff0734:	62c2      	str	r2, [r0, #44]	@ 0x2c
1fff0736:	6b02      	ldr	r2, [r0, #48]	@ 0x30
1fff0738:	438a      	bics	r2, r1
1fff073a:	6302      	str	r2, [r0, #48]	@ 0x30
1fff073c:	bd70      	pop	{r4, r5, r6, pc}
1fff073e:	0000      	movs	r0, r0
1fff0740:	0018      	movs	r0, r3
1fff0742:	2000      	movs	r0, #0
1fff0744:	1000      	asrs	r0, r0, #32
1fff0746:	4002      	ands	r2, r0
1fff0748:	b5f0      	push	{r4, r5, r6, r7, lr}
1fff074a:	b091      	sub	sp, #68	@ 0x44
1fff074c:	2102      	movs	r1, #2
1fff074e:	4668      	mov	r0, sp
1fff0750:	f7ff fec8 	bl	0x1fff04e4
1fff0754:	4668      	mov	r0, sp
1fff0756:	7804      	ldrb	r4, [r0, #0]
1fff0758:	7845      	ldrb	r5, [r0, #1]
1fff075a:	4627      	mov	r7, r4
1fff075c:	406f      	eors	r7, r5
1fff075e:	2cff      	cmp	r4, #255	@ 0xff
1fff0760:	d012      	beq.n	0x1fff0788
1fff0762:	1c68      	adds	r0, r5, #1
1fff0764:	0046      	lsls	r6, r0, #1
1fff0766:	9010      	str	r0, [sp, #64]	@ 0x40
1fff0768:	1c71      	adds	r1, r6, #1
1fff076a:	4668      	mov	r0, sp
1fff076c:	f7ff feba 	bl	0x1fff04e4
1fff0770:	463a      	mov	r2, r7
1fff0772:	4631      	mov	r1, r6
1fff0774:	4668      	mov	r0, sp
1fff0776:	f000 f83b 	bl	0x1fff07f0
1fff077a:	4669      	mov	r1, sp
1fff077c:	5d8a      	ldrb	r2, [r1, r6]
1fff077e:	4282      	cmp	r2, r0
1fff0780:	d010      	beq.n	0x1fff07a4
1fff0782:	2000      	movs	r0, #0
1fff0784:	b011      	add	sp, #68	@ 0x44
1fff0786:	bdf0      	pop	{r4, r5, r6, r7, pc}
1fff0788:	a800      	add	r0, sp, #0
1fff078a:	2101      	movs	r1, #1
1fff078c:	3002      	adds	r0, #2
1fff078e:	f7ff fea9 	bl	0x1fff04e4
1fff0792:	4668      	mov	r0, sp
1fff0794:	7880      	ldrb	r0, [r0, #2]
1fff0796:	42b8      	cmp	r0, r7
1fff0798:	d001      	beq.n	0x1fff079e
1fff079a:	2000      	movs	r0, #0
1fff079c:	e7f2      	b.n	0x1fff0784
1fff079e:	f000 f94d 	bl	0x1fff0a3c
1fff07a2:	e7ef      	b.n	0x1fff0784
1fff07a4:	2000      	movs	r0, #0
1fff07a6:	e007      	b.n	0x1fff07b8
1fff07a8:	0043      	lsls	r3, r0, #1
1fff07aa:	5cca      	ldrb	r2, [r1, r3]
1fff07ac:	185e      	adds	r6, r3, r1
1fff07ae:	7877      	ldrb	r7, [r6, #1]
1fff07b0:	54cf      	strb	r7, [r1, r3]
1fff07b2:	7072      	strb	r2, [r6, #1]
1fff07b4:	1c40      	adds	r0, r0, #1
1fff07b6:	b2c0      	uxtb	r0, r0
1fff07b8:	9a10      	ldr	r2, [sp, #64]	@ 0x40
1fff07ba:	4290      	cmp	r0, r2
1fff07bc:	d3f4      	bcc.n	0x1fff07a8
1fff07be:	2c00      	cmp	r4, #0
1fff07c0:	d005      	beq.n	0x1fff07ce
1fff07c2:	2c10      	cmp	r4, #16
1fff07c4:	d009      	beq.n	0x1fff07da
1fff07c6:	2c20      	cmp	r4, #32
1fff07c8:	d00d      	beq.n	0x1fff07e6
1fff07ca:	2000      	movs	r0, #0
1fff07cc:	e7da      	b.n	0x1fff0784
1fff07ce:	2204      	movs	r2, #4
1fff07d0:	4629      	mov	r1, r5
1fff07d2:	4668      	mov	r0, sp
1fff07d4:	f000 f950 	bl	0x1fff0a78
1fff07d8:	e7d4      	b.n	0x1fff0784
1fff07da:	2201      	movs	r2, #1
1fff07dc:	4629      	mov	r1, r5
1fff07de:	4668      	mov	r0, sp
1fff07e0:	f000 f94a 	bl	0x1fff0a78
1fff07e4:	e7ce      	b.n	0x1fff0784
1fff07e6:	4629      	mov	r1, r5
1fff07e8:	4668      	mov	r0, sp
1fff07ea:	f000 fa09 	bl	0x1fff0c00
1fff07ee:	e7c9      	b.n	0x1fff0784
1fff07f0:	e002      	b.n	0x1fff07f8
1fff07f2:	7803      	ldrb	r3, [r0, #0]
1fff07f4:	1c40      	adds	r0, r0, #1
1fff07f6:	405a      	eors	r2, r3
1fff07f8:	460b      	mov	r3, r1
1fff07fa:	1e49      	subs	r1, r1, #1
1fff07fc:	b289      	uxth	r1, r1
1fff07fe:	2b00      	cmp	r3, #0
1fff0800:	d1f7      	bne.n	0x1fff07f2
1fff0802:	4610      	mov	r0, r2
1fff0804:	4770      	bx	lr
1fff0806:	0000      	movs	r0, r0
1fff0808:	b508      	push	{r3, lr}
1fff080a:	4668      	mov	r0, sp
1fff080c:	f000 fd3c 	bl	0x1fff1288
1fff0810:	2801      	cmp	r0, #1
1fff0812:	d003      	beq.n	0x1fff081c
1fff0814:	2802      	cmp	r0, #2
1fff0816:	d001      	beq.n	0x1fff081c
1fff0818:	2000      	movs	r0, #0
1fff081a:	bd08      	pop	{r3, pc}
1fff081c:	480e      	ldr	r0, [pc, #56]	@ (0x1fff0858)
1fff081e:	6b41      	ldr	r1, [r0, #52]	@ 0x34
1fff0820:	0849      	lsrs	r1, r1, #1
1fff0822:	0049      	lsls	r1, r1, #1
1fff0824:	6341      	str	r1, [r0, #52]	@ 0x34
1fff0826:	6bc2      	ldr	r2, [r0, #60]	@ 0x3c
1fff0828:	2101      	movs	r1, #1
1fff082a:	05c9      	lsls	r1, r1, #23
1fff082c:	438a      	bics	r2, r1
1fff082e:	63c2      	str	r2, [r0, #60]	@ 0x3c
1fff0830:	6a42      	ldr	r2, [r0, #36]	@ 0x24
1fff0832:	2301      	movs	r3, #1
1fff0834:	431a      	orrs	r2, r3
1fff0836:	6242      	str	r2, [r0, #36]	@ 0x24
1fff0838:	6ac2      	ldr	r2, [r0, #44]	@ 0x2c
1fff083a:	430a      	orrs	r2, r1
1fff083c:	62c2      	str	r2, [r0, #44]	@ 0x2c
1fff083e:	6a42      	ldr	r2, [r0, #36]	@ 0x24
1fff0840:	439a      	bics	r2, r3
1fff0842:	6242      	str	r2, [r0, #36]	@ 0x24
1fff0844:	6ac2      	ldr	r2, [r0, #44]	@ 0x2c
1fff0846:	438a      	bics	r2, r1
1fff0848:	62c2      	str	r2, [r0, #44]	@ 0x2c
1fff084a:	b662      	cpsie	i
1fff084c:	9800      	ldr	r0, [sp, #0]
1fff084e:	f7ff fcb9 	bl	0x1fff01c4
1fff0852:	2001      	movs	r0, #1
1fff0854:	bd08      	pop	{r3, pc}
1fff0856:	0000      	movs	r0, r0
1fff0858:	1000      	asrs	r0, r0, #32
1fff085a:	4002      	ands	r2, r0
1fff085c:	b510      	push	{r4, lr}
1fff085e:	4919      	ldr	r1, [pc, #100]	@ (0x1fff08c4)
1fff0860:	6b48      	ldr	r0, [r1, #52]	@ 0x34
1fff0862:	2202      	movs	r2, #2
1fff0864:	4310      	orrs	r0, r2
1fff0866:	6348      	str	r0, [r1, #52]	@ 0x34
1fff0868:	4817      	ldr	r0, [pc, #92]	@ (0x1fff08c8)
1fff086a:	6802      	ldr	r2, [r0, #0]
1fff086c:	1404      	asrs	r4, r0, #16
1fff086e:	43a2      	bics	r2, r4
1fff0870:	6002      	str	r2, [r0, #0]
1fff0872:	6a02      	ldr	r2, [r0, #32]
1fff0874:	2311      	movs	r3, #17
1fff0876:	061b      	lsls	r3, r3, #24
1fff0878:	431a      	orrs	r2, r3
1fff087a:	6202      	str	r2, [r0, #32]
1fff087c:	6842      	ldr	r2, [r0, #4]
1fff087e:	23c0      	movs	r3, #192	@ 0xc0
1fff0880:	431a      	orrs	r2, r3
1fff0882:	6042      	str	r2, [r0, #4]
1fff0884:	6883      	ldr	r3, [r0, #8]
1fff0886:	220f      	movs	r2, #15
1fff0888:	0312      	lsls	r2, r2, #12
1fff088a:	4313      	orrs	r3, r2
1fff088c:	6083      	str	r3, [r0, #8]
1fff088e:	68c3      	ldr	r3, [r0, #12]
1fff0890:	4393      	bics	r3, r2
1fff0892:	191a      	adds	r2, r3, r4
1fff0894:	60c2      	str	r2, [r0, #12]
1fff0896:	6bc8      	ldr	r0, [r1, #60]	@ 0x3c
1fff0898:	2201      	movs	r2, #1
1fff089a:	0552      	lsls	r2, r2, #21
1fff089c:	4310      	orrs	r0, r2
1fff089e:	63c8      	str	r0, [r1, #60]	@ 0x3c
1fff08a0:	480a      	ldr	r0, [pc, #40]	@ (0x1fff08cc)
1fff08a2:	6881      	ldr	r1, [r0, #8]
1fff08a4:	22fe      	movs	r2, #254	@ 0xfe
1fff08a6:	4391      	bics	r1, r2
1fff08a8:	3176      	adds	r1, #118	@ 0x76
1fff08aa:	6081      	str	r1, [r0, #8]
1fff08ac:	6801      	ldr	r1, [r0, #0]
1fff08ae:	2201      	movs	r2, #1
1fff08b0:	4311      	orrs	r1, r2
1fff08b2:	6001      	str	r1, [r0, #0]
1fff08b4:	2108      	movs	r1, #8
1fff08b6:	6041      	str	r1, [r0, #4]
1fff08b8:	2128      	movs	r1, #40	@ 0x28
1fff08ba:	61c1      	str	r1, [r0, #28]
1fff08bc:	2109      	movs	r1, #9
1fff08be:	6201      	str	r1, [r0, #32]
1fff08c0:	bd10      	pop	{r4, pc}
1fff08c2:	0000      	movs	r0, r0
1fff08c4:	1000      	asrs	r0, r0, #32
1fff08c6:	4002      	ands	r2, r0
1fff08c8:	0400      	lsls	r0, r0, #16
1fff08ca:	5000      	str	r0, [r0, r0]
1fff08cc:	5400      	strb	r0, [r0, r0]
1fff08ce:	4000      	ands	r0, r0
1fff08d0:	b5f8      	push	{r3, r4, r5, r6, r7, lr}
1fff08d2:	4604      	mov	r4, r0
1fff08d4:	460d      	mov	r5, r1
1fff08d6:	2000      	movs	r0, #0
1fff08d8:	9000      	str	r0, [sp, #0]
1fff08da:	4e1b      	ldr	r6, [pc, #108]	@ (0x1fff0948)
1fff08dc:	6830      	ldr	r0, [r6, #0]
1fff08de:	14f1      	asrs	r1, r6, #19
1fff08e0:	4388      	bics	r0, r1
1fff08e2:	6030      	str	r0, [r6, #0]
1fff08e4:	6830      	ldr	r0, [r6, #0]
1fff08e6:	104f      	asrs	r7, r1, #1
1fff08e8:	4338      	orrs	r0, r7
1fff08ea:	6030      	str	r0, [r6, #0]
1fff08ec:	e001      	b.n	0x1fff08f2
1fff08ee:	f000 fb59 	bl	0x1fff0fa4
1fff08f2:	6970      	ldr	r0, [r6, #20]
1fff08f4:	0780      	lsls	r0, r0, #30
1fff08f6:	d5fa      	bpl.n	0x1fff08ee
1fff08f8:	6970      	ldr	r0, [r6, #20]
1fff08fa:	69b0      	ldr	r0, [r6, #24]
1fff08fc:	9000      	str	r0, [sp, #0]
1fff08fe:	e011      	b.n	0x1fff0924
1fff0900:	f000 fb50 	bl	0x1fff0fa4
1fff0904:	6970      	ldr	r0, [r6, #20]
1fff0906:	0640      	lsls	r0, r0, #25
1fff0908:	d5fa      	bpl.n	0x1fff0900
1fff090a:	6930      	ldr	r0, [r6, #16]
1fff090c:	7020      	strb	r0, [r4, #0]
1fff090e:	1c64      	adds	r4, r4, #1
1fff0910:	1e6d      	subs	r5, r5, #1
1fff0912:	b2ad      	uxth	r5, r5
1fff0914:	6970      	ldr	r0, [r6, #20]
1fff0916:	0740      	lsls	r0, r0, #29
1fff0918:	d504      	bpl.n	0x1fff0924
1fff091a:	6930      	ldr	r0, [r6, #16]
1fff091c:	7020      	strb	r0, [r4, #0]
1fff091e:	1c64      	adds	r4, r4, #1
1fff0920:	1e6d      	subs	r5, r5, #1
1fff0922:	b2ad      	uxth	r5, r5
1fff0924:	2d00      	cmp	r5, #0
1fff0926:	d1ed      	bne.n	0x1fff0904
1fff0928:	e001      	b.n	0x1fff092e
1fff092a:	f000 fb3b 	bl	0x1fff0fa4
1fff092e:	6970      	ldr	r0, [r6, #20]
1fff0930:	06c0      	lsls	r0, r0, #27
1fff0932:	d5fa      	bpl.n	0x1fff092a
1fff0934:	6970      	ldr	r0, [r6, #20]
1fff0936:	9000      	str	r0, [sp, #0]
1fff0938:	6830      	ldr	r0, [r6, #0]
1fff093a:	2101      	movs	r1, #1
1fff093c:	4308      	orrs	r0, r1
1fff093e:	6030      	str	r0, [r6, #0]
1fff0940:	6830      	ldr	r0, [r6, #0]
1fff0942:	43b8      	bics	r0, r7
1fff0944:	6030      	str	r0, [r6, #0]
1fff0946:	bdf8      	pop	{r3, r4, r5, r6, r7, pc}
1fff0948:	5400      	strb	r0, [r0, r0]
1fff094a:	4000      	ands	r0, r0
1fff094c:	b5f8      	push	{r3, r4, r5, r6, r7, lr}
1fff094e:	4604      	mov	r4, r0
1fff0950:	460d      	mov	r5, r1
1fff0952:	2000      	movs	r0, #0
1fff0954:	9000      	str	r0, [sp, #0]
1fff0956:	4e1a      	ldr	r6, [pc, #104]	@ (0x1fff09c0)
1fff0958:	6830      	ldr	r0, [r6, #0]
1fff095a:	14f1      	asrs	r1, r6, #19
1fff095c:	4388      	bics	r0, r1
1fff095e:	6030      	str	r0, [r6, #0]
1fff0960:	6830      	ldr	r0, [r6, #0]
1fff0962:	104f      	asrs	r7, r1, #1
1fff0964:	4338      	orrs	r0, r7
1fff0966:	6030      	str	r0, [r6, #0]
1fff0968:	e001      	b.n	0x1fff096e
1fff096a:	f000 fb1b 	bl	0x1fff0fa4
1fff096e:	6970      	ldr	r0, [r6, #20]
1fff0970:	0780      	lsls	r0, r0, #30
1fff0972:	d5fa      	bpl.n	0x1fff096a
1fff0974:	6970      	ldr	r0, [r6, #20]
1fff0976:	69b0      	ldr	r0, [r6, #24]
1fff0978:	9000      	str	r0, [sp, #0]
1fff097a:	e011      	b.n	0x1fff09a0
1fff097c:	f000 fb12 	bl	0x1fff0fa4
1fff0980:	6970      	ldr	r0, [r6, #20]
1fff0982:	0600      	lsls	r0, r0, #24
1fff0984:	d5fa      	bpl.n	0x1fff097c
1fff0986:	7820      	ldrb	r0, [r4, #0]
1fff0988:	1c64      	adds	r4, r4, #1
1fff098a:	6130      	str	r0, [r6, #16]
1fff098c:	1e6d      	subs	r5, r5, #1
1fff098e:	b2ad      	uxth	r5, r5
1fff0990:	6970      	ldr	r0, [r6, #20]
1fff0992:	0740      	lsls	r0, r0, #29
1fff0994:	d504      	bpl.n	0x1fff09a0
1fff0996:	7820      	ldrb	r0, [r4, #0]
1fff0998:	1c64      	adds	r4, r4, #1
1fff099a:	6130      	str	r0, [r6, #16]
1fff099c:	1e6d      	subs	r5, r5, #1
1fff099e:	b2ad      	uxth	r5, r5
1fff09a0:	2d00      	cmp	r5, #0
1fff09a2:	d1ed      	bne.n	0x1fff0980
1fff09a4:	e001      	b.n	0x1fff09aa
1fff09a6:	f000 fafd 	bl	0x1fff0fa4
1fff09aa:	6970      	ldr	r0, [r6, #20]
1fff09ac:	0540      	lsls	r0, r0, #21
1fff09ae:	d5fa      	bpl.n	0x1fff09a6
1fff09b0:	6970      	ldr	r0, [r6, #20]
1fff09b2:	43b8      	bics	r0, r7
1fff09b4:	6170      	str	r0, [r6, #20]
1fff09b6:	6830      	ldr	r0, [r6, #0]
1fff09b8:	43b8      	bics	r0, r7
1fff09ba:	6030      	str	r0, [r6, #0]
1fff09bc:	bdf8      	pop	{r3, r4, r5, r6, r7, pc}
1fff09be:	0000      	movs	r0, r0
1fff09c0:	5400      	strb	r0, [r0, r0]
1fff09c2:	4000      	ands	r0, r0
1fff09c4:	b538      	push	{r3, r4, r5, lr}
1fff09c6:	2000      	movs	r0, #0
1fff09c8:	9000      	str	r0, [sp, #0]
1fff09ca:	4c1b      	ldr	r4, [pc, #108]	@ (0x1fff0a38)
1fff09cc:	6820      	ldr	r0, [r4, #0]
1fff09ce:	14e1      	asrs	r1, r4, #19
1fff09d0:	4388      	bics	r0, r1
1fff09d2:	6020      	str	r0, [r4, #0]
1fff09d4:	6820      	ldr	r0, [r4, #0]
1fff09d6:	104d      	asrs	r5, r1, #1
1fff09d8:	4328      	orrs	r0, r5
1fff09da:	6020      	str	r0, [r4, #0]
1fff09dc:	6960      	ldr	r0, [r4, #20]
1fff09de:	0780      	lsls	r0, r0, #30
1fff09e0:	d401      	bmi.n	0x1fff09e6
1fff09e2:	2000      	movs	r0, #0
1fff09e4:	bd38      	pop	{r3, r4, r5, pc}
1fff09e6:	6960      	ldr	r0, [r4, #20]
1fff09e8:	69a0      	ldr	r0, [r4, #24]
1fff09ea:	9000      	str	r0, [sp, #0]
1fff09ec:	e001      	b.n	0x1fff09f2
1fff09ee:	f000 fad9 	bl	0x1fff0fa4
1fff09f2:	6960      	ldr	r0, [r4, #20]
1fff09f4:	0640      	lsls	r0, r0, #25
1fff09f6:	d5fa      	bpl.n	0x1fff09ee
1fff09f8:	6920      	ldr	r0, [r4, #16]
1fff09fa:	b2c0      	uxtb	r0, r0
1fff09fc:	287f      	cmp	r0, #127	@ 0x7f
1fff09fe:	d001      	beq.n	0x1fff0a04
1fff0a00:	2000      	movs	r0, #0
1fff0a02:	bd38      	pop	{r3, r4, r5, pc}
1fff0a04:	6960      	ldr	r0, [r4, #20]
1fff0a06:	0740      	lsls	r0, r0, #29
1fff0a08:	d508      	bpl.n	0x1fff0a1c
1fff0a0a:	6920      	ldr	r0, [r4, #16]
1fff0a0c:	b2c0      	uxtb	r0, r0
1fff0a0e:	9000      	str	r0, [sp, #0]
1fff0a10:	e004      	b.n	0x1fff0a1c
1fff0a12:	6920      	ldr	r0, [r4, #16]
1fff0a14:	b2c0      	uxtb	r0, r0
1fff0a16:	9000      	str	r0, [sp, #0]
1fff0a18:	f000 fac4 	bl	0x1fff0fa4
1fff0a1c:	6960      	ldr	r0, [r4, #20]
1fff0a1e:	06c0      	lsls	r0, r0, #27
1fff0a20:	d5f7      	bpl.n	0x1fff0a12
1fff0a22:	6960      	ldr	r0, [r4, #20]
1fff0a24:	9000      	str	r0, [sp, #0]
1fff0a26:	6820      	ldr	r0, [r4, #0]
1fff0a28:	2101      	movs	r1, #1
1fff0a2a:	4308      	orrs	r0, r1
1fff0a2c:	6020      	str	r0, [r4, #0]
1fff0a2e:	6820      	ldr	r0, [r4, #0]
1fff0a30:	43a8      	bics	r0, r5
1fff0a32:	6020      	str	r0, [r4, #0]
1fff0a34:	2001      	movs	r0, #1
1fff0a36:	bd38      	pop	{r3, r4, r5, pc}
1fff0a38:	5400      	strb	r0, [r0, r0]
1fff0a3a:	4000      	ands	r0, r0
1fff0a3c:	490c      	ldr	r1, [pc, #48]	@ (0x1fff0a70)
1fff0a3e:	6948      	ldr	r0, [r1, #20]
1fff0a40:	4a0c      	ldr	r2, [pc, #48]	@ (0x1fff0a74)
1fff0a42:	4310      	orrs	r0, r2
1fff0a44:	6148      	str	r0, [r1, #20]
1fff0a46:	2000      	movs	r0, #0
1fff0a48:	43c0      	mvns	r0, r0
1fff0a4a:	0652      	lsls	r2, r2, #25
1fff0a4c:	6010      	str	r0, [r2, #0]
1fff0a4e:	6908      	ldr	r0, [r1, #16]
1fff0a50:	03c0      	lsls	r0, r0, #15
1fff0a52:	d4fc      	bmi.n	0x1fff0a4e
1fff0a54:	6908      	ldr	r0, [r1, #16]
1fff0a56:	07c0      	lsls	r0, r0, #31
1fff0a58:	0fc0      	lsrs	r0, r0, #31
1fff0a5a:	690a      	ldr	r2, [r1, #16]
1fff0a5c:	2301      	movs	r3, #1
1fff0a5e:	431a      	orrs	r2, r3
1fff0a60:	610a      	str	r2, [r1, #16]
1fff0a62:	694a      	ldr	r2, [r1, #20]
1fff0a64:	4b03      	ldr	r3, [pc, #12]	@ (0x1fff0a74)
1fff0a66:	43db      	mvns	r3, r3
1fff0a68:	401a      	ands	r2, r3
1fff0a6a:	614a      	str	r2, [r1, #20]
1fff0a6c:	4770      	bx	lr
1fff0a6e:	0000      	movs	r0, r0
1fff0a70:	2000      	movs	r0, #0
1fff0a72:	4002      	ands	r2, r0
1fff0a74:	0004      	movs	r4, r0
1fff0a76:	0100      	lsls	r0, r0, #4
1fff0a78:	b5f7      	push	{r0, r1, r2, r4, r5, r6, r7, lr}
1fff0a7a:	b082      	sub	sp, #8
1fff0a7c:	4616      	mov	r6, r2
1fff0a7e:	2001      	movs	r0, #1
1fff0a80:	2500      	movs	r5, #0
1fff0a82:	1c49      	adds	r1, r1, #1
1fff0a84:	4f20      	ldr	r7, [pc, #128]	@ (0x1fff0b08)
1fff0a86:	9101      	str	r1, [sp, #4]
1fff0a88:	e036      	b.n	0x1fff0af8
1fff0a8a:	2400      	movs	r4, #0
1fff0a8c:	e030      	b.n	0x1fff0af0
1fff0a8e:	6978      	ldr	r0, [r7, #20]
1fff0a90:	491e      	ldr	r1, [pc, #120]	@ (0x1fff0b0c)
1fff0a92:	4308      	orrs	r0, r1
1fff0a94:	6178      	str	r0, [r7, #20]
1fff0a96:	f000 fa85 	bl	0x1fff0fa4
1fff0a9a:	9802      	ldr	r0, [sp, #8]
1fff0a9c:	0069      	lsls	r1, r5, #1
1fff0a9e:	5a40      	ldrh	r0, [r0, r1]
1fff0aa0:	2101      	movs	r1, #1
1fff0aa2:	4370      	muls	r0, r6
1fff0aa4:	1900      	adds	r0, r0, r4
1fff0aa6:	0200      	lsls	r0, r0, #8
1fff0aa8:	06c9      	lsls	r1, r1, #27
1fff0aaa:	1840      	adds	r0, r0, r1
1fff0aac:	4918      	ldr	r1, [pc, #96]	@ (0x1fff0b10)
1fff0aae:	7f09      	ldrb	r1, [r1, #28]
1fff0ab0:	221f      	movs	r2, #31
1fff0ab2:	0789      	lsls	r1, r1, #30
1fff0ab4:	0f89      	lsrs	r1, r1, #30
1fff0ab6:	1c49      	adds	r1, r1, #1
1fff0ab8:	06d2      	lsls	r2, r2, #27
1fff0aba:	03c9      	lsls	r1, r1, #15
1fff0abc:	1882      	adds	r2, r0, r2
1fff0abe:	4291      	cmp	r1, r2
1fff0ac0:	d801      	bhi.n	0x1fff0ac6
1fff0ac2:	2001      	movs	r0, #1
1fff0ac4:	e012      	b.n	0x1fff0aec
1fff0ac6:	2100      	movs	r1, #0
1fff0ac8:	43c9      	mvns	r1, r1
1fff0aca:	6001      	str	r1, [r0, #0]
1fff0acc:	6938      	ldr	r0, [r7, #16]
1fff0ace:	03c0      	lsls	r0, r0, #15
1fff0ad0:	d4fc      	bmi.n	0x1fff0acc
1fff0ad2:	6978      	ldr	r0, [r7, #20]
1fff0ad4:	490d      	ldr	r1, [pc, #52]	@ (0x1fff0b0c)
1fff0ad6:	43c9      	mvns	r1, r1
1fff0ad8:	4008      	ands	r0, r1
1fff0ada:	6178      	str	r0, [r7, #20]
1fff0adc:	6938      	ldr	r0, [r7, #16]
1fff0ade:	07c0      	lsls	r0, r0, #31
1fff0ae0:	d00f      	beq.n	0x1fff0b02
1fff0ae2:	2001      	movs	r0, #1
1fff0ae4:	6939      	ldr	r1, [r7, #16]
1fff0ae6:	2201      	movs	r2, #1
1fff0ae8:	4311      	orrs	r1, r2
1fff0aea:	6139      	str	r1, [r7, #16]
1fff0aec:	1c64      	adds	r4, r4, #1
1fff0aee:	b2e4      	uxtb	r4, r4
1fff0af0:	42b4      	cmp	r4, r6
1fff0af2:	d3cc      	bcc.n	0x1fff0a8e
1fff0af4:	1c6d      	adds	r5, r5, #1
1fff0af6:	b2ed      	uxtb	r5, r5
1fff0af8:	9901      	ldr	r1, [sp, #4]
1fff0afa:	428d      	cmp	r5, r1
1fff0afc:	d3c5      	bcc.n	0x1fff0a8a
1fff0afe:	b005      	add	sp, #20
1fff0b00:	bdf0      	pop	{r4, r5, r6, r7, pc}
1fff0b02:	2000      	movs	r0, #0
1fff0b04:	e7f6      	b.n	0x1fff0af4
1fff0b06:	0000      	movs	r0, r0
1fff0b08:	2000      	movs	r0, #0
1fff0b0a:	4002      	ands	r2, r0
1fff0b0c:	0002      	movs	r2, r0
1fff0b0e:	0100      	lsls	r0, r0, #4
1fff0b10:	31e0      	adds	r1, #224	@ 0xe0
1fff0b12:	1fff      	subs	r7, r7, #7
1fff0b14:	b50e      	push	{r1, r2, r3, lr}
1fff0b16:	a802      	add	r0, sp, #8
1fff0b18:	f000 fbb6 	bl	0x1fff1288
1fff0b1c:	2800      	cmp	r0, #0
1fff0b1e:	d00b      	beq.n	0x1fff0b38
1fff0b20:	2102      	movs	r1, #2
1fff0b22:	4668      	mov	r0, sp
1fff0b24:	f7ff fcde 	bl	0x1fff04e4
1fff0b28:	4669      	mov	r1, sp
1fff0b2a:	7808      	ldrb	r0, [r1, #0]
1fff0b2c:	7849      	ldrb	r1, [r1, #1]
1fff0b2e:	4048      	eors	r0, r1
1fff0b30:	28ff      	cmp	r0, #255	@ 0xff
1fff0b32:	d003      	beq.n	0x1fff0b3c
1fff0b34:	2000      	movs	r0, #0
1fff0b36:	bd0e      	pop	{r1, r2, r3, pc}
1fff0b38:	2000      	movs	r0, #0
1fff0b3a:	bd0e      	pop	{r1, r2, r3, pc}
1fff0b3c:	2079      	movs	r0, #121	@ 0x79
1fff0b3e:	f7ff fd03 	bl	0x1fff0548
1fff0b42:	4914      	ldr	r1, [pc, #80]	@ (0x1fff0b94)
1fff0b44:	9802      	ldr	r0, [sp, #8]
1fff0b46:	1841      	adds	r1, r0, r1
1fff0b48:	d00b      	beq.n	0x1fff0b62
1fff0b4a:	4a13      	ldr	r2, [pc, #76]	@ (0x1fff0b98)
1fff0b4c:	1889      	adds	r1, r1, r2
1fff0b4e:	d008      	beq.n	0x1fff0b62
1fff0b50:	2914      	cmp	r1, #20
1fff0b52:	d006      	beq.n	0x1fff0b62
1fff0b54:	4669      	mov	r1, sp
1fff0b56:	7809      	ldrb	r1, [r1, #0]
1fff0b58:	1c49      	adds	r1, r1, #1
1fff0b5a:	f7ff fcfb 	bl	0x1fff0554
1fff0b5e:	2001      	movs	r0, #1
1fff0b60:	bd0e      	pop	{r1, r2, r3, pc}
1fff0b62:	490e      	ldr	r1, [pc, #56]	@ (0x1fff0b9c)
1fff0b64:	7f08      	ldrb	r0, [r1, #28]
1fff0b66:	466a      	mov	r2, sp
1fff0b68:	0780      	lsls	r0, r0, #30
1fff0b6a:	0f80      	lsrs	r0, r0, #30
1fff0b6c:	1c40      	adds	r0, r0, #1
1fff0b6e:	0140      	lsls	r0, r0, #5
1fff0b70:	7050      	strb	r0, [r2, #1]
1fff0b72:	2000      	movs	r0, #0
1fff0b74:	7090      	strb	r0, [r2, #2]
1fff0b76:	7f09      	ldrb	r1, [r1, #28]
1fff0b78:	0709      	lsls	r1, r1, #28
1fff0b7a:	0f89      	lsrs	r1, r1, #30
1fff0b7c:	1c49      	adds	r1, r1, #1
1fff0b7e:	0089      	lsls	r1, r1, #2
1fff0b80:	70d1      	strb	r1, [r2, #3]
1fff0b82:	7110      	strb	r0, [r2, #4]
1fff0b84:	7811      	ldrb	r1, [r2, #0]
1fff0b86:	1c50      	adds	r0, r2, #1
1fff0b88:	1c49      	adds	r1, r1, #1
1fff0b8a:	f7ff fce3 	bl	0x1fff0554
1fff0b8e:	2001      	movs	r0, #1
1fff0b90:	bd0e      	pop	{r1, r2, r3, pc}
1fff0b92:	0000      	movs	r0, r0
1fff0b94:	85de      	strh	r6, [r3, #46]	@ 0x2e
1fff0b96:	e000      	b.n	0x1fff0b9a
1fff0b98:	8256      	strh	r6, [r2, #18]
1fff0b9a:	ffff 31e0 			@ <UNDEFINED> instruction: 0xffff31e0
1fff0b9e:	1fff      	subs	r7, r7, #7
1fff0ba0:	4811      	ldr	r0, [pc, #68]	@ (0x1fff0be8)
1fff0ba2:	6981      	ldr	r1, [r0, #24]
1fff0ba4:	b2ca      	uxtb	r2, r1
1fff0ba6:	4911      	ldr	r1, [pc, #68]	@ (0x1fff0bec)
1fff0ba8:	600a      	str	r2, [r1, #0]
1fff0baa:	6982      	ldr	r2, [r0, #24]
1fff0bac:	0412      	lsls	r2, r2, #16
1fff0bae:	0e12      	lsrs	r2, r2, #24
1fff0bb0:	610a      	str	r2, [r1, #16]
1fff0bb2:	6982      	ldr	r2, [r0, #24]
1fff0bb4:	01d2      	lsls	r2, r2, #7
1fff0bb6:	0dd2      	lsrs	r2, r2, #23
1fff0bb8:	604a      	str	r2, [r1, #4]
1fff0bba:	6a02      	ldr	r2, [r0, #32]
1fff0bbc:	b2d2      	uxtb	r2, r2
1fff0bbe:	608a      	str	r2, [r1, #8]
1fff0bc0:	6a02      	ldr	r2, [r0, #32]
1fff0bc2:	0152      	lsls	r2, r2, #5
1fff0bc4:	0d52      	lsrs	r2, r2, #21
1fff0bc6:	60ca      	str	r2, [r1, #12]
1fff0bc8:	6a82      	ldr	r2, [r0, #40]	@ 0x28
1fff0bca:	03d2      	lsls	r2, r2, #15
1fff0bcc:	0bd2      	lsrs	r2, r2, #15
1fff0bce:	614a      	str	r2, [r1, #20]
1fff0bd0:	6b02      	ldr	r2, [r0, #48]	@ 0x30
1fff0bd2:	03d2      	lsls	r2, r2, #15
1fff0bd4:	0bd2      	lsrs	r2, r2, #15
1fff0bd6:	618a      	str	r2, [r1, #24]
1fff0bd8:	6b82      	ldr	r2, [r0, #56]	@ 0x38
1fff0bda:	b292      	uxth	r2, r2
1fff0bdc:	61ca      	str	r2, [r1, #28]
1fff0bde:	6b80      	ldr	r0, [r0, #56]	@ 0x38
1fff0be0:	0c00      	lsrs	r0, r0, #16
1fff0be2:	6208      	str	r0, [r1, #32]
1fff0be4:	4770      	bx	lr
1fff0be6:	0000      	movs	r0, r0
1fff0be8:	32c0      	adds	r2, #192	@ 0xc0
1fff0bea:	1fff      	subs	r7, r7, #7
1fff0bec:	2100      	movs	r1, #0
1fff0bee:	4002      	ands	r2, r0
1fff0bf0:	4801      	ldr	r0, [pc, #4]	@ (0x1fff0bf8)
1fff0bf2:	6880      	ldr	r0, [r0, #8]
1fff0bf4:	4770      	bx	lr
1fff0bf6:	0000      	movs	r0, r0
1fff0bf8:	001c      	movs	r4, r3
1fff0bfa:	2000      	movs	r0, #0
1fff0bfc:	27a0      	movs	r7, #160	@ 0xa0
1fff0bfe:	2304      	movs	r3, #4
1fff0c00:	b5f8      	push	{r3, r4, r5, r6, r7, lr}
1fff0c02:	4607      	mov	r7, r0
1fff0c04:	2400      	movs	r4, #0
1fff0c06:	4d14      	ldr	r5, [pc, #80]	@ (0x1fff0c58)
1fff0c08:	1c4e      	adds	r6, r1, #1
1fff0c0a:	e020      	b.n	0x1fff0c4e
1fff0c0c:	6968      	ldr	r0, [r5, #20]
1fff0c0e:	4913      	ldr	r1, [pc, #76]	@ (0x1fff0c5c)
1fff0c10:	4308      	orrs	r0, r1
1fff0c12:	6168      	str	r0, [r5, #20]
1fff0c14:	f000 f9c6 	bl	0x1fff0fa4
1fff0c18:	0061      	lsls	r1, r4, #1
1fff0c1a:	5a79      	ldrh	r1, [r7, r1]
1fff0c1c:	2000      	movs	r0, #0
1fff0c1e:	2201      	movs	r2, #1
1fff0c20:	43c0      	mvns	r0, r0
1fff0c22:	0349      	lsls	r1, r1, #13
1fff0c24:	06d2      	lsls	r2, r2, #27
1fff0c26:	1889      	adds	r1, r1, r2
1fff0c28:	6008      	str	r0, [r1, #0]
1fff0c2a:	6928      	ldr	r0, [r5, #16]
1fff0c2c:	03c0      	lsls	r0, r0, #15
1fff0c2e:	d4fc      	bmi.n	0x1fff0c2a
1fff0c30:	6968      	ldr	r0, [r5, #20]
1fff0c32:	490a      	ldr	r1, [pc, #40]	@ (0x1fff0c5c)
1fff0c34:	43c9      	mvns	r1, r1
1fff0c36:	4008      	ands	r0, r1
1fff0c38:	6168      	str	r0, [r5, #20]
1fff0c3a:	6928      	ldr	r0, [r5, #16]
1fff0c3c:	07c0      	lsls	r0, r0, #31
1fff0c3e:	d009      	beq.n	0x1fff0c54
1fff0c40:	2001      	movs	r0, #1
1fff0c42:	6929      	ldr	r1, [r5, #16]
1fff0c44:	2201      	movs	r2, #1
1fff0c46:	4311      	orrs	r1, r2
1fff0c48:	6129      	str	r1, [r5, #16]
1fff0c4a:	1c64      	adds	r4, r4, #1
1fff0c4c:	b2e4      	uxtb	r4, r4
1fff0c4e:	42b4      	cmp	r4, r6
1fff0c50:	d3dc      	bcc.n	0x1fff0c0c
1fff0c52:	bdf8      	pop	{r3, r4, r5, r6, r7, pc}
1fff0c54:	2000      	movs	r0, #0
1fff0c56:	bdf8      	pop	{r3, r4, r5, r6, r7, pc}
1fff0c58:	2000      	movs	r0, #0
1fff0c5a:	4002      	ands	r2, r0
1fff0c5c:	0800      	lsrs	r0, r0, #32
1fff0c5e:	0100      	lsls	r0, r0, #4
1fff0c60:	b530      	push	{r4, r5, lr}
1fff0c62:	b091      	sub	sp, #68	@ 0x44
1fff0c64:	2130      	movs	r1, #48	@ 0x30
1fff0c66:	a805      	add	r0, sp, #20
1fff0c68:	f7ff fa71 	bl	0x1fff014e
1fff0c6c:	2400      	movs	r4, #0
1fff0c6e:	9401      	str	r4, [sp, #4]
1fff0c70:	9402      	str	r4, [sp, #8]
1fff0c72:	9403      	str	r4, [sp, #12]
1fff0c74:	9404      	str	r4, [sp, #16]
1fff0c76:	2502      	movs	r5, #2
1fff0c78:	9505      	str	r5, [sp, #20]
1fff0c7a:	01e8      	lsls	r0, r5, #7
1fff0c7c:	900a      	str	r0, [sp, #40]	@ 0x28
1fff0c7e:	940b      	str	r4, [sp, #44]	@ 0x2c
1fff0c80:	480f      	ldr	r0, [pc, #60]	@ (0x1fff0cc0)
1fff0c82:	03a9      	lsls	r1, r5, #14
1fff0c84:	8c00      	ldrh	r0, [r0, #32]
1fff0c86:	04c0      	lsls	r0, r0, #19
1fff0c88:	0cc0      	lsrs	r0, r0, #19
1fff0c8a:	1840      	adds	r0, r0, r1
1fff0c8c:	900c      	str	r0, [sp, #48]	@ 0x30
1fff0c8e:	950e      	str	r5, [sp, #56]	@ 0x38
1fff0c90:	950f      	str	r5, [sp, #60]	@ 0x3c
1fff0c92:	9410      	str	r4, [sp, #64]	@ 0x40
1fff0c94:	a805      	add	r0, sp, #20
1fff0c96:	f000 fcef 	bl	0x1fff1678
1fff0c9a:	2800      	cmp	r0, #0
1fff0c9c:	d001      	beq.n	0x1fff0ca2
1fff0c9e:	f000 ff6f 	bl	0x1fff1b80
1fff0ca2:	2007      	movs	r0, #7
1fff0ca4:	9001      	str	r0, [sp, #4]
1fff0ca6:	9502      	str	r5, [sp, #8]
1fff0ca8:	9403      	str	r4, [sp, #12]
1fff0caa:	9404      	str	r4, [sp, #16]
1fff0cac:	2101      	movs	r1, #1
1fff0cae:	a801      	add	r0, sp, #4
1fff0cb0:	f000 fbc4 	bl	0x1fff143c
1fff0cb4:	2800      	cmp	r0, #0
1fff0cb6:	d001      	beq.n	0x1fff0cbc
1fff0cb8:	f000 ff62 	bl	0x1fff1b80
1fff0cbc:	b011      	add	sp, #68	@ 0x44
1fff0cbe:	bd30      	pop	{r4, r5, pc}
1fff0cc0:	3200      	adds	r2, #0
1fff0cc2:	1fff      	subs	r7, r7, #7
1fff0cc4:	b570      	push	{r4, r5, r6, lr}
1fff0cc6:	4604      	mov	r4, r0
1fff0cc8:	4b42      	ldr	r3, [pc, #264]	@ (0x1fff0dd4)
1fff0cca:	2201      	movs	r2, #1
1fff0ccc:	2005      	movs	r0, #5
1fff0cce:	0700      	lsls	r0, r0, #28
1fff0cd0:	0395      	lsls	r5, r2, #14
1fff0cd2:	4941      	ldr	r1, [pc, #260]	@ (0x1fff0dd8)
1fff0cd4:	429c      	cmp	r4, r3
1fff0cd6:	d115      	bne.n	0x1fff0d04
1fff0cd8:	6b4b      	ldr	r3, [r1, #52]	@ 0x34
1fff0cda:	4313      	orrs	r3, r2
1fff0cdc:	634b      	str	r3, [r1, #52]	@ 0x34
1fff0cde:	68c3      	ldr	r3, [r0, #12]
1fff0ce0:	2603      	movs	r6, #3
1fff0ce2:	0536      	lsls	r6, r6, #20
1fff0ce4:	43b3      	bics	r3, r6
1fff0ce6:	0516      	lsls	r6, r2, #20
1fff0ce8:	199b      	adds	r3, r3, r6
1fff0cea:	60c3      	str	r3, [r0, #12]
1fff0cec:	6803      	ldr	r3, [r0, #0]
1fff0cee:	43b3      	bics	r3, r6
1fff0cf0:	6003      	str	r3, [r0, #0]
1fff0cf2:	6a43      	ldr	r3, [r0, #36]	@ 0x24
1fff0cf4:	158e      	asrs	r6, r1, #22
1fff0cf6:	4333      	orrs	r3, r6
1fff0cf8:	6243      	str	r3, [r0, #36]	@ 0x24
1fff0cfa:	4b37      	ldr	r3, [pc, #220]	@ (0x1fff0dd8)
1fff0cfc:	3340      	adds	r3, #64	@ 0x40
1fff0cfe:	681e      	ldr	r6, [r3, #0]
1fff0d00:	432e      	orrs	r6, r5
1fff0d02:	601e      	str	r6, [r3, #0]
1fff0d04:	4b35      	ldr	r3, [pc, #212]	@ (0x1fff0ddc)
1fff0d06:	429c      	cmp	r4, r3
1fff0d08:	d113      	bne.n	0x1fff0d32
1fff0d0a:	6b4b      	ldr	r3, [r1, #52]	@ 0x34
1fff0d0c:	4313      	orrs	r3, r2
1fff0d0e:	634b      	str	r3, [r1, #52]	@ 0x34
1fff0d10:	68c2      	ldr	r2, [r0, #12]
1fff0d12:	0093      	lsls	r3, r2, #2
1fff0d14:	089b      	lsrs	r3, r3, #2
1fff0d16:	0522      	lsls	r2, r4, #20
1fff0d18:	189b      	adds	r3, r3, r2
1fff0d1a:	60c3      	str	r3, [r0, #12]
1fff0d1c:	6803      	ldr	r3, [r0, #0]
1fff0d1e:	4393      	bics	r3, r2
1fff0d20:	6003      	str	r3, [r0, #0]
1fff0d22:	6a42      	ldr	r2, [r0, #36]	@ 0x24
1fff0d24:	04a3      	lsls	r3, r4, #18
1fff0d26:	431a      	orrs	r2, r3
1fff0d28:	6242      	str	r2, [r0, #36]	@ 0x24
1fff0d2a:	6bc8      	ldr	r0, [r1, #60]	@ 0x3c
1fff0d2c:	12da      	asrs	r2, r3, #11
1fff0d2e:	4310      	orrs	r0, r2
1fff0d30:	63c8      	str	r0, [r1, #60]	@ 0x3c
1fff0d32:	482b      	ldr	r0, [pc, #172]	@ (0x1fff0de0)
1fff0d34:	2203      	movs	r2, #3
1fff0d36:	2601      	movs	r6, #1
1fff0d38:	0592      	lsls	r2, r2, #22
1fff0d3a:	05b6      	lsls	r6, r6, #22
1fff0d3c:	4284      	cmp	r4, r0
1fff0d3e:	d112      	bne.n	0x1fff0d66
1fff0d40:	6b48      	ldr	r0, [r1, #52]	@ 0x34
1fff0d42:	2302      	movs	r3, #2
1fff0d44:	4318      	orrs	r0, r3
1fff0d46:	6348      	str	r0, [r1, #52]	@ 0x34
1fff0d48:	4826      	ldr	r0, [pc, #152]	@ (0x1fff0de4)
1fff0d4a:	68c3      	ldr	r3, [r0, #12]
1fff0d4c:	4393      	bics	r3, r2
1fff0d4e:	199b      	adds	r3, r3, r6
1fff0d50:	60c3      	str	r3, [r0, #12]
1fff0d52:	6803      	ldr	r3, [r0, #0]
1fff0d54:	43b3      	bics	r3, r6
1fff0d56:	6003      	str	r3, [r0, #0]
1fff0d58:	6a43      	ldr	r3, [r0, #36]	@ 0x24
1fff0d5a:	432b      	orrs	r3, r5
1fff0d5c:	6243      	str	r3, [r0, #36]	@ 0x24
1fff0d5e:	6bc8      	ldr	r0, [r1, #60]	@ 0x3c
1fff0d60:	1133      	asrs	r3, r6, #4
1fff0d62:	4318      	orrs	r0, r3
1fff0d64:	63c8      	str	r0, [r1, #60]	@ 0x3c
1fff0d66:	4820      	ldr	r0, [pc, #128]	@ (0x1fff0de8)
1fff0d68:	2504      	movs	r5, #4
1fff0d6a:	4284      	cmp	r4, r0
1fff0d6c:	d113      	bne.n	0x1fff0d96
1fff0d6e:	6b48      	ldr	r0, [r1, #52]	@ 0x34
1fff0d70:	4328      	orrs	r0, r5
1fff0d72:	6348      	str	r0, [r1, #52]	@ 0x34
1fff0d74:	481d      	ldr	r0, [pc, #116]	@ (0x1fff0dec)
1fff0d76:	68c3      	ldr	r3, [r0, #12]
1fff0d78:	4393      	bics	r3, r2
1fff0d7a:	199a      	adds	r2, r3, r6
1fff0d7c:	60c2      	str	r2, [r0, #12]
1fff0d7e:	6802      	ldr	r2, [r0, #0]
1fff0d80:	43b2      	bics	r2, r6
1fff0d82:	6002      	str	r2, [r0, #0]
1fff0d84:	6a42      	ldr	r2, [r0, #36]	@ 0x24
1fff0d86:	230f      	movs	r3, #15
1fff0d88:	031b      	lsls	r3, r3, #12
1fff0d8a:	439a      	bics	r2, r3
1fff0d8c:	6242      	str	r2, [r0, #36]	@ 0x24
1fff0d8e:	6bc8      	ldr	r0, [r1, #60]	@ 0x3c
1fff0d90:	046a      	lsls	r2, r5, #17
1fff0d92:	4310      	orrs	r0, r2
1fff0d94:	63c8      	str	r0, [r1, #60]	@ 0x3c
1fff0d96:	68e0      	ldr	r0, [r4, #12]
1fff0d98:	2105      	movs	r1, #5
1fff0d9a:	0289      	lsls	r1, r1, #10
1fff0d9c:	4308      	orrs	r0, r1
1fff0d9e:	60e0      	str	r0, [r4, #12]
1fff0da0:	4813      	ldr	r0, [pc, #76]	@ (0x1fff0df0)
1fff0da2:	21e1      	movs	r1, #225	@ 0xe1
1fff0da4:	0249      	lsls	r1, r1, #9
1fff0da6:	6800      	ldr	r0, [r0, #0]
1fff0da8:	104a      	asrs	r2, r1, #1
1fff0daa:	1880      	adds	r0, r0, r2
1fff0dac:	f7ff f9a0 	bl	0x1fff00f0
1fff0db0:	60a0      	str	r0, [r4, #8]
1fff0db2:	68e0      	ldr	r0, [r4, #12]
1fff0db4:	2101      	movs	r1, #1
1fff0db6:	0349      	lsls	r1, r1, #13
1fff0db8:	4308      	orrs	r0, r1
1fff0dba:	60e0      	str	r0, [r4, #12]
1fff0dbc:	6960      	ldr	r0, [r4, #20]
1fff0dbe:	2103      	movs	r1, #3
1fff0dc0:	0349      	lsls	r1, r1, #13
1fff0dc2:	4388      	bics	r0, r1
1fff0dc4:	2101      	movs	r1, #1
1fff0dc6:	0309      	lsls	r1, r1, #12
1fff0dc8:	4308      	orrs	r0, r1
1fff0dca:	6160      	str	r0, [r4, #20]
1fff0dcc:	68e0      	ldr	r0, [r4, #12]
1fff0dce:	4328      	orrs	r0, r5
1fff0dd0:	60e0      	str	r0, [r4, #12]
1fff0dd2:	bd70      	pop	{r4, r5, r6, pc}
1fff0dd4:	3800      	subs	r0, #0
1fff0dd6:	4001      	ands	r1, r0
1fff0dd8:	1000      	asrs	r0, r0, #32
1fff0dda:	4002      	ands	r2, r0
1fff0ddc:	4400      	add	r0, r0
1fff0dde:	4000      	ands	r0, r0
1fff0de0:	4800      	ldr	r0, [pc, #0]	@ (0x1fff0de4)
1fff0de2:	4000      	ands	r0, r0
1fff0de4:	0400      	lsls	r0, r0, #16
1fff0de6:	5000      	str	r0, [r0, r0]
1fff0de8:	4c00      	ldr	r4, [pc, #0]	@ (0x1fff0dec)
1fff0dea:	4000      	ands	r0, r0
1fff0dec:	0800      	lsrs	r0, r0, #32
1fff0dee:	5000      	str	r0, [r0, r0]
1fff0df0:	0000      	movs	r0, r0
1fff0df2:	2000      	movs	r0, #0
1fff0df4:	b530      	push	{r4, r5, lr}
1fff0df6:	6941      	ldr	r1, [r0, #20]
1fff0df8:	2201      	movs	r2, #1
1fff0dfa:	0312      	lsls	r2, r2, #12
1fff0dfc:	4391      	bics	r1, r2
1fff0dfe:	6141      	str	r1, [r0, #20]
1fff0e00:	4a26      	ldr	r2, [pc, #152]	@ (0x1fff0e9c)
1fff0e02:	2105      	movs	r1, #5
1fff0e04:	0709      	lsls	r1, r1, #28
1fff0e06:	4290      	cmp	r0, r2
1fff0e08:	d10e      	bne.n	0x1fff0e28
1fff0e0a:	68cb      	ldr	r3, [r1, #12]
1fff0e0c:	2203      	movs	r2, #3
1fff0e0e:	0492      	lsls	r2, r2, #18
1fff0e10:	4393      	bics	r3, r2
1fff0e12:	2201      	movs	r2, #1
1fff0e14:	0492      	lsls	r2, r2, #18
1fff0e16:	189b      	adds	r3, r3, r2
1fff0e18:	60cb      	str	r3, [r1, #12]
1fff0e1a:	680b      	ldr	r3, [r1, #0]
1fff0e1c:	4393      	bics	r3, r2
1fff0e1e:	600b      	str	r3, [r1, #0]
1fff0e20:	6a4a      	ldr	r2, [r1, #36]	@ 0x24
1fff0e22:	2310      	movs	r3, #16
1fff0e24:	431a      	orrs	r2, r3
1fff0e26:	624a      	str	r2, [r1, #36]	@ 0x24
1fff0e28:	4a1d      	ldr	r2, [pc, #116]	@ (0x1fff0ea0)
1fff0e2a:	4290      	cmp	r0, r2
1fff0e2c:	d10e      	bne.n	0x1fff0e4c
1fff0e2e:	68cb      	ldr	r3, [r1, #12]
1fff0e30:	2203      	movs	r2, #3
1fff0e32:	0712      	lsls	r2, r2, #28
1fff0e34:	4393      	bics	r3, r2
1fff0e36:	0482      	lsls	r2, r0, #18
1fff0e38:	189b      	adds	r3, r3, r2
1fff0e3a:	60cb      	str	r3, [r1, #12]
1fff0e3c:	680b      	ldr	r3, [r1, #0]
1fff0e3e:	4393      	bics	r3, r2
1fff0e40:	600b      	str	r3, [r1, #0]
1fff0e42:	6a4a      	ldr	r2, [r1, #36]	@ 0x24
1fff0e44:	2301      	movs	r3, #1
1fff0e46:	061b      	lsls	r3, r3, #24
1fff0e48:	431a      	orrs	r2, r3
1fff0e4a:	624a      	str	r2, [r1, #36]	@ 0x24
1fff0e4c:	4915      	ldr	r1, [pc, #84]	@ (0x1fff0ea4)
1fff0e4e:	2303      	movs	r3, #3
1fff0e50:	2201      	movs	r2, #1
1fff0e52:	051b      	lsls	r3, r3, #20
1fff0e54:	0512      	lsls	r2, r2, #20
1fff0e56:	4288      	cmp	r0, r1
1fff0e58:	d10b      	bne.n	0x1fff0e72
1fff0e5a:	4913      	ldr	r1, [pc, #76]	@ (0x1fff0ea8)
1fff0e5c:	68cc      	ldr	r4, [r1, #12]
1fff0e5e:	439c      	bics	r4, r3
1fff0e60:	18a4      	adds	r4, r4, r2
1fff0e62:	60cc      	str	r4, [r1, #12]
1fff0e64:	680c      	ldr	r4, [r1, #0]
1fff0e66:	4394      	bics	r4, r2
1fff0e68:	600c      	str	r4, [r1, #0]
1fff0e6a:	6a4c      	ldr	r4, [r1, #36]	@ 0x24
1fff0e6c:	1505      	asrs	r5, r0, #20
1fff0e6e:	432c      	orrs	r4, r5
1fff0e70:	624c      	str	r4, [r1, #36]	@ 0x24
1fff0e72:	490e      	ldr	r1, [pc, #56]	@ (0x1fff0eac)
1fff0e74:	4288      	cmp	r0, r1
1fff0e76:	d10c      	bne.n	0x1fff0e92
1fff0e78:	490d      	ldr	r1, [pc, #52]	@ (0x1fff0eb0)
1fff0e7a:	68cc      	ldr	r4, [r1, #12]
1fff0e7c:	439c      	bics	r4, r3
1fff0e7e:	18a3      	adds	r3, r4, r2
1fff0e80:	60cb      	str	r3, [r1, #12]
1fff0e82:	680b      	ldr	r3, [r1, #0]
1fff0e84:	4393      	bics	r3, r2
1fff0e86:	600b      	str	r3, [r1, #0]
1fff0e88:	6a4a      	ldr	r2, [r1, #36]	@ 0x24
1fff0e8a:	230f      	movs	r3, #15
1fff0e8c:	021b      	lsls	r3, r3, #8
1fff0e8e:	439a      	bics	r2, r3
1fff0e90:	624a      	str	r2, [r1, #36]	@ 0x24
1fff0e92:	68c1      	ldr	r1, [r0, #12]
1fff0e94:	2208      	movs	r2, #8
1fff0e96:	4311      	orrs	r1, r2
1fff0e98:	60c1      	str	r1, [r0, #12]
1fff0e9a:	bd30      	pop	{r4, r5, pc}
1fff0e9c:	3800      	subs	r0, #0
1fff0e9e:	4001      	ands	r1, r0
1fff0ea0:	4400      	add	r0, r0
1fff0ea2:	4000      	ands	r0, r0
1fff0ea4:	4800      	ldr	r0, [pc, #0]	@ (0x1fff0ea8)
1fff0ea6:	4000      	ands	r0, r0
1fff0ea8:	0400      	lsls	r0, r0, #16
1fff0eaa:	5000      	str	r0, [r0, r0]
1fff0eac:	4c00      	ldr	r4, [pc, #0]	@ (0x1fff0eb0)
1fff0eae:	4000      	ands	r0, r0
1fff0eb0:	0800      	lsrs	r0, r0, #32
1fff0eb2:	5000      	str	r0, [r0, r0]
1fff0eb4:	b570      	push	{r4, r5, r6, lr}
1fff0eb6:	4606      	mov	r6, r0
1fff0eb8:	460d      	mov	r5, r1
1fff0eba:	4614      	mov	r4, r2
1fff0ebc:	e007      	b.n	0x1fff0ece
1fff0ebe:	f000 f871 	bl	0x1fff0fa4
1fff0ec2:	6831      	ldr	r1, [r6, #0]
1fff0ec4:	0688      	lsls	r0, r1, #26
1fff0ec6:	d5fa      	bpl.n	0x1fff0ebe
1fff0ec8:	6870      	ldr	r0, [r6, #4]
1fff0eca:	7028      	strb	r0, [r5, #0]
1fff0ecc:	1c6d      	adds	r5, r5, #1
1fff0ece:	4620      	mov	r0, r4
1fff0ed0:	1e64      	subs	r4, r4, #1
1fff0ed2:	b2a4      	uxth	r4, r4
1fff0ed4:	2800      	cmp	r0, #0
1fff0ed6:	d1f4      	bne.n	0x1fff0ec2
1fff0ed8:	bd70      	pop	{r4, r5, r6, pc}
1fff0eda:	b570      	push	{r4, r5, r6, lr}
1fff0edc:	4604      	mov	r4, r0
1fff0ede:	460e      	mov	r6, r1
1fff0ee0:	4615      	mov	r5, r2
1fff0ee2:	e008      	b.n	0x1fff0ef6
1fff0ee4:	7830      	ldrb	r0, [r6, #0]
1fff0ee6:	1c76      	adds	r6, r6, #1
1fff0ee8:	6060      	str	r0, [r4, #4]
1fff0eea:	e001      	b.n	0x1fff0ef0
1fff0eec:	f000 f85a 	bl	0x1fff0fa4
1fff0ef0:	6820      	ldr	r0, [r4, #0]
1fff0ef2:	0600      	lsls	r0, r0, #24
1fff0ef4:	d5fa      	bpl.n	0x1fff0eec
1fff0ef6:	4628      	mov	r0, r5
1fff0ef8:	1e6d      	subs	r5, r5, #1
1fff0efa:	b2ad      	uxth	r5, r5
1fff0efc:	2800      	cmp	r0, #0
1fff0efe:	d1f1      	bne.n	0x1fff0ee4
1fff0f00:	e001      	b.n	0x1fff0f06
1fff0f02:	f000 f84f 	bl	0x1fff0fa4
1fff0f06:	6820      	ldr	r0, [r4, #0]
1fff0f08:	0640      	lsls	r0, r0, #25
1fff0f0a:	d5fa      	bpl.n	0x1fff0f02
1fff0f0c:	6820      	ldr	r0, [r4, #0]
1fff0f0e:	2140      	movs	r1, #64	@ 0x40
1fff0f10:	4388      	bics	r0, r1
1fff0f12:	6020      	str	r0, [r4, #0]
1fff0f14:	bd70      	pop	{r4, r5, r6, pc}
1fff0f16:	0000      	movs	r0, r0
1fff0f18:	b508      	push	{r3, lr}
1fff0f1a:	480f      	ldr	r0, [pc, #60]	@ (0x1fff0f58)
1fff0f1c:	6801      	ldr	r1, [r0, #0]
1fff0f1e:	2301      	movs	r3, #1
1fff0f20:	4319      	orrs	r1, r3
1fff0f22:	6001      	str	r1, [r0, #0]
1fff0f24:	6800      	ldr	r0, [r0, #0]
1fff0f26:	4018      	ands	r0, r3
1fff0f28:	9000      	str	r0, [sp, #0]
1fff0f2a:	480b      	ldr	r0, [pc, #44]	@ (0x1fff0f58)
1fff0f2c:	3840      	subs	r0, #64	@ 0x40
1fff0f2e:	6bc2      	ldr	r2, [r0, #60]	@ 0x3c
1fff0f30:	05d9      	lsls	r1, r3, #23
1fff0f32:	430a      	orrs	r2, r1
1fff0f34:	63c2      	str	r2, [r0, #60]	@ 0x3c
1fff0f36:	6bc2      	ldr	r2, [r0, #60]	@ 0x3c
1fff0f38:	400a      	ands	r2, r1
1fff0f3a:	9200      	str	r2, [sp, #0]
1fff0f3c:	6b41      	ldr	r1, [r0, #52]	@ 0x34
1fff0f3e:	4319      	orrs	r1, r3
1fff0f40:	6341      	str	r1, [r0, #52]	@ 0x34
1fff0f42:	6b40      	ldr	r0, [r0, #52]	@ 0x34
1fff0f44:	4018      	ands	r0, r3
1fff0f46:	9000      	str	r0, [sp, #0]
1fff0f48:	f000 fffc 	bl	0x1fff1f44
1fff0f4c:	2001      	movs	r0, #1
1fff0f4e:	4903      	ldr	r1, [pc, #12]	@ (0x1fff0f5c)
1fff0f50:	07c0      	lsls	r0, r0, #31
1fff0f52:	6008      	str	r0, [r1, #0]
1fff0f54:	bd08      	pop	{r3, pc}
1fff0f56:	0000      	movs	r0, r0
1fff0f58:	1040      	asrs	r0, r0, #1
1fff0f5a:	4002      	ands	r2, r0
1fff0f5c:	e100      	b.n	0x1fff1160
1fff0f5e:	e000      	b.n	0x1fff0f62
1fff0f60:	b500      	push	{lr}
1fff0f62:	480b      	ldr	r0, [pc, #44]	@ (0x1fff0f90)
1fff0f64:	6a01      	ldr	r1, [r0, #32]
1fff0f66:	04c9      	lsls	r1, r1, #19
1fff0f68:	d405      	bmi.n	0x1fff0f76
1fff0f6a:	490a      	ldr	r1, [pc, #40]	@ (0x1fff0f94)
1fff0f6c:	684a      	ldr	r2, [r1, #4]
1fff0f6e:	23ff      	movs	r3, #255	@ 0xff
1fff0f70:	3381      	adds	r3, #129	@ 0x81
1fff0f72:	431a      	orrs	r2, r3
1fff0f74:	604a      	str	r2, [r1, #4]
1fff0f76:	6a00      	ldr	r0, [r0, #32]
1fff0f78:	0500      	lsls	r0, r0, #20
1fff0f7a:	d406      	bmi.n	0x1fff0f8a
1fff0f7c:	4807      	ldr	r0, [pc, #28]	@ (0x1fff0f9c)
1fff0f7e:	4906      	ldr	r1, [pc, #24]	@ (0x1fff0f98)
1fff0f80:	6001      	str	r1, [r0, #0]
1fff0f82:	2107      	movs	r1, #7
1fff0f84:	6041      	str	r1, [r0, #4]
1fff0f86:	4906      	ldr	r1, [pc, #24]	@ (0x1fff0fa0)
1fff0f88:	6081      	str	r1, [r0, #8]
1fff0f8a:	f000 f80b 	bl	0x1fff0fa4
1fff0f8e:	bd00      	pop	{pc}
1fff0f90:	2000      	movs	r0, #0
1fff0f92:	4002      	ands	r2, r0
1fff0f94:	2c00      	cmp	r4, #0
1fff0f96:	4000      	ands	r0, r0
1fff0f98:	5555      	strb	r5, [r2, r5]
1fff0f9a:	0000      	movs	r0, r0
1fff0f9c:	3000      	adds	r0, #0
1fff0f9e:	4000      	ands	r0, r0
1fff0fa0:	0fff      	lsrs	r7, r7, #31
1fff0fa2:	0000      	movs	r0, r0
1fff0fa4:	4804      	ldr	r0, [pc, #16]	@ (0x1fff0fb8)
1fff0fa6:	6801      	ldr	r1, [r0, #0]
1fff0fa8:	227f      	movs	r2, #127	@ 0x7f
1fff0faa:	4311      	orrs	r1, r2
1fff0fac:	6001      	str	r1, [r0, #0]
1fff0fae:	4904      	ldr	r1, [pc, #16]	@ (0x1fff0fc0)
1fff0fb0:	4802      	ldr	r0, [pc, #8]	@ (0x1fff0fbc)
1fff0fb2:	6008      	str	r0, [r1, #0]
1fff0fb4:	4770      	bx	lr
1fff0fb6:	0000      	movs	r0, r0
1fff0fb8:	2c00      	cmp	r4, #0
1fff0fba:	4000      	ands	r0, r0
1fff0fbc:	aaaa      	add	r2, sp, #680	@ 0x2a8
1fff0fbe:	0000      	movs	r0, r0
1fff0fc0:	3000      	adds	r0, #0
1fff0fc2:	4000      	ands	r0, r0
1fff0fc4:	b5f8      	push	{r3, r4, r5, r6, r7, lr}
1fff0fc6:	4605      	mov	r5, r0
1fff0fc8:	460e      	mov	r6, r1
1fff0fca:	1c52      	adds	r2, r2, #1
1fff0fcc:	0629      	lsls	r1, r5, #24
1fff0fce:	462b      	mov	r3, r5
1fff0fd0:	0e09      	lsrs	r1, r1, #24
1fff0fd2:	d01c      	beq.n	0x1fff100e
1fff0fd4:	0a2d      	lsrs	r5, r5, #8
1fff0fd6:	022d      	lsls	r5, r5, #8
1fff0fd8:	2100      	movs	r1, #0
1fff0fda:	b2dc      	uxtb	r4, r3
1fff0fdc:	46a6      	mov	lr, r4
1fff0fde:	18a4      	adds	r4, r4, r2
1fff0fe0:	46a4      	mov	ip, r4
1fff0fe2:	e00a      	b.n	0x1fff0ffa
1fff0fe4:	1a54      	subs	r4, r2, r1
1fff0fe6:	19a4      	adds	r4, r4, r6
1fff0fe8:	3c20      	subs	r4, #32
1fff0fea:	7fe7      	ldrb	r7, [r4, #31]
1fff0fec:	4664      	mov	r4, ip
1fff0fee:	1a64      	subs	r4, r4, r1
1fff0ff0:	19a4      	adds	r4, r4, r6
1fff0ff2:	3c20      	subs	r4, #32
1fff0ff4:	77e7      	strb	r7, [r4, #31]
1fff0ff6:	1c49      	adds	r1, r1, #1
1fff0ff8:	b289      	uxth	r1, r1
1fff0ffa:	4291      	cmp	r1, r2
1fff0ffc:	d3f2      	bcc.n	0x1fff0fe4
1fff0ffe:	2100      	movs	r1, #0
1fff1000:	e003      	b.n	0x1fff100a
1fff1002:	5c6c      	ldrb	r4, [r5, r1]
1fff1004:	5474      	strb	r4, [r6, r1]
1fff1006:	1c49      	adds	r1, r1, #1
1fff1008:	b289      	uxth	r1, r1
1fff100a:	458e      	cmp	lr, r1
1fff100c:	d8f9      	bhi.n	0x1fff1002
1fff100e:	b2d9      	uxtb	r1, r3
1fff1010:	b2d4      	uxtb	r4, r2
1fff1012:	430c      	orrs	r4, r1
1fff1014:	d010      	beq.n	0x1fff1038
1fff1016:	189b      	adds	r3, r3, r2
1fff1018:	33fe      	adds	r3, #254	@ 0xfe
1fff101a:	0a1b      	lsrs	r3, r3, #8
1fff101c:	021b      	lsls	r3, r3, #8
1fff101e:	1e5b      	subs	r3, r3, #1
1fff1020:	1889      	adds	r1, r1, r2
1fff1022:	b289      	uxth	r1, r1
1fff1024:	1b5a      	subs	r2, r3, r5
1fff1026:	1c52      	adds	r2, r2, #1
1fff1028:	e003      	b.n	0x1fff1032
1fff102a:	5c6b      	ldrb	r3, [r5, r1]
1fff102c:	5473      	strb	r3, [r6, r1]
1fff102e:	1c49      	adds	r1, r1, #1
1fff1030:	b289      	uxth	r1, r1
1fff1032:	428a      	cmp	r2, r1
1fff1034:	d8f9      	bhi.n	0x1fff102a
1fff1036:	b292      	uxth	r2, r2
1fff1038:	2400      	movs	r4, #0
1fff103a:	2700      	movs	r7, #0
1fff103c:	0a11      	lsrs	r1, r2, #8
1fff103e:	9100      	str	r1, [sp, #0]
1fff1040:	e026      	b.n	0x1fff1090
1fff1042:	f7ff ffaf 	bl	0x1fff0fa4
1fff1046:	4b15      	ldr	r3, [pc, #84]	@ (0x1fff109c)
1fff1048:	6958      	ldr	r0, [r3, #20]
1fff104a:	4915      	ldr	r1, [pc, #84]	@ (0x1fff10a0)
1fff104c:	4308      	orrs	r0, r1
1fff104e:	6158      	str	r0, [r3, #20]
1fff1050:	2000      	movs	r0, #0
1fff1052:	1149      	asrs	r1, r1, #5
1fff1054:	5932      	ldr	r2, [r6, r4]
1fff1056:	512a      	str	r2, [r5, r4]
1fff1058:	1d24      	adds	r4, r4, #4
1fff105a:	283e      	cmp	r0, #62	@ 0x3e
1fff105c:	d102      	bne.n	0x1fff1064
1fff105e:	695a      	ldr	r2, [r3, #20]
1fff1060:	430a      	orrs	r2, r1
1fff1062:	615a      	str	r2, [r3, #20]
1fff1064:	1c40      	adds	r0, r0, #1
1fff1066:	b280      	uxth	r0, r0
1fff1068:	2840      	cmp	r0, #64	@ 0x40
1fff106a:	d3f3      	bcc.n	0x1fff1054
1fff106c:	6918      	ldr	r0, [r3, #16]
1fff106e:	03c0      	lsls	r0, r0, #15
1fff1070:	d4fc      	bmi.n	0x1fff106c
1fff1072:	6958      	ldr	r0, [r3, #20]
1fff1074:	490a      	ldr	r1, [pc, #40]	@ (0x1fff10a0)
1fff1076:	43c9      	mvns	r1, r1
1fff1078:	4008      	ands	r0, r1
1fff107a:	6158      	str	r0, [r3, #20]
1fff107c:	6918      	ldr	r0, [r3, #16]
1fff107e:	07c0      	lsls	r0, r0, #31
1fff1080:	d00a      	beq.n	0x1fff1098
1fff1082:	2001      	movs	r0, #1
1fff1084:	6919      	ldr	r1, [r3, #16]
1fff1086:	2201      	movs	r2, #1
1fff1088:	4311      	orrs	r1, r2
1fff108a:	6119      	str	r1, [r3, #16]
1fff108c:	1c7f      	adds	r7, r7, #1
1fff108e:	b2bf      	uxth	r7, r7
1fff1090:	9900      	ldr	r1, [sp, #0]
1fff1092:	42b9      	cmp	r1, r7
1fff1094:	d8d5      	bhi.n	0x1fff1042
1fff1096:	bdf8      	pop	{r3, r4, r5, r6, r7, pc}
1fff1098:	2000      	movs	r0, #0
1fff109a:	bdf8      	pop	{r3, r4, r5, r6, r7, pc}
1fff109c:	2000      	movs	r0, #0
1fff109e:	4002      	ands	r2, r0
1fff10a0:	0001      	movs	r1, r0
1fff10a2:	0100      	lsls	r0, r0, #4
1fff10a4:	b570      	push	{r4, r5, r6, lr}
1fff10a6:	b0ff      	sub	sp, #508	@ 0x1fc
1fff10a8:	b083      	sub	sp, #12
1fff10aa:	a881      	add	r0, sp, #516	@ 0x204
1fff10ac:	f000 f8ec 	bl	0x1fff1288
1fff10b0:	4604      	mov	r4, r0
1fff10b2:	2c01      	cmp	r4, #1
1fff10b4:	d007      	beq.n	0x1fff10c6
1fff10b6:	2c02      	cmp	r4, #2
1fff10b8:	d005      	beq.n	0x1fff10c6
1fff10ba:	2c03      	cmp	r4, #3
1fff10bc:	d003      	beq.n	0x1fff10c6
1fff10be:	2000      	movs	r0, #0
1fff10c0:	b07f      	add	sp, #508	@ 0x1fc
1fff10c2:	b003      	add	sp, #12
1fff10c4:	bd70      	pop	{r4, r5, r6, pc}
1fff10c6:	f7ff fa05 	bl	0x1fff04d4
1fff10ca:	4605      	mov	r5, r0
1fff10cc:	1ca9      	adds	r1, r5, #2
1fff10ce:	4668      	mov	r0, sp
1fff10d0:	f7ff fa08 	bl	0x1fff04e4
1fff10d4:	462a      	mov	r2, r5
1fff10d6:	1c69      	adds	r1, r5, #1
1fff10d8:	4668      	mov	r0, sp
1fff10da:	f7ff fb89 	bl	0x1fff07f0
1fff10de:	466b      	mov	r3, sp
1fff10e0:	1959      	adds	r1, r3, r5
1fff10e2:	7849      	ldrb	r1, [r1, #1]
1fff10e4:	4288      	cmp	r0, r1
1fff10e6:	d001      	beq.n	0x1fff10ec
1fff10e8:	2000      	movs	r0, #0
1fff10ea:	e7e9      	b.n	0x1fff10c0
1fff10ec:	2c01      	cmp	r4, #1
1fff10ee:	d004      	beq.n	0x1fff10fa
1fff10f0:	2c02      	cmp	r4, #2
1fff10f2:	d009      	beq.n	0x1fff1108
1fff10f4:	2c03      	cmp	r4, #3
1fff10f6:	d119      	bne.n	0x1fff112c
1fff10f8:	e012      	b.n	0x1fff1120
1fff10fa:	462a      	mov	r2, r5
1fff10fc:	4669      	mov	r1, sp
1fff10fe:	9881      	ldr	r0, [sp, #516]	@ 0x204
1fff1100:	f7ff ff60 	bl	0x1fff0fc4
1fff1104:	4606      	mov	r6, r0
1fff1106:	e011      	b.n	0x1fff112c
1fff1108:	2000      	movs	r0, #0
1fff110a:	1c6d      	adds	r5, r5, #1
1fff110c:	9981      	ldr	r1, [sp, #516]	@ 0x204
1fff110e:	e003      	b.n	0x1fff1118
1fff1110:	5c1a      	ldrb	r2, [r3, r0]
1fff1112:	540a      	strb	r2, [r1, r0]
1fff1114:	1c40      	adds	r0, r0, #1
1fff1116:	b280      	uxth	r0, r0
1fff1118:	42a8      	cmp	r0, r5
1fff111a:	d3f9      	bcc.n	0x1fff1110
1fff111c:	2601      	movs	r6, #1
1fff111e:	e005      	b.n	0x1fff112c
1fff1120:	462a      	mov	r2, r5
1fff1122:	4669      	mov	r1, sp
1fff1124:	9881      	ldr	r0, [sp, #516]	@ 0x204
1fff1126:	f000 f803 	bl	0x1fff1130
1fff112a:	4606      	mov	r6, r0
1fff112c:	4630      	mov	r0, r6
1fff112e:	e7c7      	b.n	0x1fff10c0
1fff1130:	b5f8      	push	{r3, r4, r5, r6, r7, lr}
1fff1132:	4686      	mov	lr, r0
1fff1134:	4610      	mov	r0, r2
1fff1136:	4a38      	ldr	r2, [pc, #224]	@ (0x1fff1218)
1fff1138:	6a15      	ldr	r5, [r2, #32]
1fff113a:	6a56      	ldr	r6, [r2, #36]	@ 0x24
1fff113c:	6ad7      	ldr	r7, [r2, #44]	@ 0x2c
1fff113e:	6952      	ldr	r2, [r2, #20]
1fff1140:	0052      	lsls	r2, r2, #1
1fff1142:	d504      	bpl.n	0x1fff114e
1fff1144:	4a34      	ldr	r2, [pc, #208]	@ (0x1fff1218)
1fff1146:	4b35      	ldr	r3, [pc, #212]	@ (0x1fff121c)
1fff1148:	60d3      	str	r3, [r2, #12]
1fff114a:	4b35      	ldr	r3, [pc, #212]	@ (0x1fff1220)
1fff114c:	60d3      	str	r3, [r2, #12]
1fff114e:	2300      	movs	r3, #0
1fff1150:	22ff      	movs	r2, #255	@ 0xff
1fff1152:	0212      	lsls	r2, r2, #8
1fff1154:	1c40      	adds	r0, r0, #1
1fff1156:	4684      	mov	ip, r0
1fff1158:	e032      	b.n	0x1fff11c0
1fff115a:	4670      	mov	r0, lr
1fff115c:	18c4      	adds	r4, r0, r3
1fff115e:	4831      	ldr	r0, [pc, #196]	@ (0x1fff1224)
1fff1160:	4284      	cmp	r4, r0
1fff1162:	d103      	bne.n	0x1fff116c
1fff1164:	0a28      	lsrs	r0, r5, #8
1fff1166:	0200      	lsls	r0, r0, #8
1fff1168:	5ccd      	ldrb	r5, [r1, r3]
1fff116a:	4305      	orrs	r5, r0
1fff116c:	482d      	ldr	r0, [pc, #180]	@ (0x1fff1224)
1fff116e:	1c40      	adds	r0, r0, #1
1fff1170:	4284      	cmp	r4, r0
1fff1172:	d103      	bne.n	0x1fff117c
1fff1174:	4395      	bics	r5, r2
1fff1176:	5cc8      	ldrb	r0, [r1, r3]
1fff1178:	0200      	lsls	r0, r0, #8
1fff117a:	4305      	orrs	r5, r0
1fff117c:	4829      	ldr	r0, [pc, #164]	@ (0x1fff1224)
1fff117e:	3008      	adds	r0, #8
1fff1180:	4284      	cmp	r4, r0
1fff1182:	d103      	bne.n	0x1fff118c
1fff1184:	0a30      	lsrs	r0, r6, #8
1fff1186:	0200      	lsls	r0, r0, #8
1fff1188:	5cce      	ldrb	r6, [r1, r3]
1fff118a:	4306      	orrs	r6, r0
1fff118c:	4825      	ldr	r0, [pc, #148]	@ (0x1fff1224)
1fff118e:	3009      	adds	r0, #9
1fff1190:	4284      	cmp	r4, r0
1fff1192:	d103      	bne.n	0x1fff119c
1fff1194:	4396      	bics	r6, r2
1fff1196:	5cc8      	ldrb	r0, [r1, r3]
1fff1198:	0200      	lsls	r0, r0, #8
1fff119a:	4306      	orrs	r6, r0
1fff119c:	4821      	ldr	r0, [pc, #132]	@ (0x1fff1224)
1fff119e:	3018      	adds	r0, #24
1fff11a0:	4284      	cmp	r4, r0
1fff11a2:	d103      	bne.n	0x1fff11ac
1fff11a4:	0a38      	lsrs	r0, r7, #8
1fff11a6:	0200      	lsls	r0, r0, #8
1fff11a8:	5ccf      	ldrb	r7, [r1, r3]
1fff11aa:	4307      	orrs	r7, r0
1fff11ac:	481d      	ldr	r0, [pc, #116]	@ (0x1fff1224)
1fff11ae:	3019      	adds	r0, #25
1fff11b0:	4284      	cmp	r4, r0
1fff11b2:	d103      	bne.n	0x1fff11bc
1fff11b4:	4397      	bics	r7, r2
1fff11b6:	5ccc      	ldrb	r4, [r1, r3]
1fff11b8:	0224      	lsls	r4, r4, #8
1fff11ba:	4327      	orrs	r7, r4
1fff11bc:	1c5b      	adds	r3, r3, #1
1fff11be:	b29b      	uxth	r3, r3
1fff11c0:	4563      	cmp	r3, ip
1fff11c2:	d3ca      	bcc.n	0x1fff115a
1fff11c4:	4c14      	ldr	r4, [pc, #80]	@ (0x1fff1218)
1fff11c6:	6225      	str	r5, [r4, #32]
1fff11c8:	6266      	str	r6, [r4, #36]	@ 0x24
1fff11ca:	62e7      	str	r7, [r4, #44]	@ 0x2c
1fff11cc:	6960      	ldr	r0, [r4, #20]
1fff11ce:	2181      	movs	r1, #129	@ 0x81
1fff11d0:	0449      	lsls	r1, r1, #17
1fff11d2:	4308      	orrs	r0, r1
1fff11d4:	6160      	str	r0, [r4, #20]
1fff11d6:	bf00      	nop
1fff11d8:	2000      	movs	r0, #0
1fff11da:	4a0f      	ldr	r2, [pc, #60]	@ (0x1fff1218)
1fff11dc:	43c0      	mvns	r0, r0
1fff11de:	3280      	adds	r2, #128	@ 0x80
1fff11e0:	6010      	str	r0, [r2, #0]
1fff11e2:	6920      	ldr	r0, [r4, #16]
1fff11e4:	03c0      	lsls	r0, r0, #15
1fff11e6:	d4fc      	bmi.n	0x1fff11e2
1fff11e8:	bf00      	nop
1fff11ea:	6920      	ldr	r0, [r4, #16]
1fff11ec:	07c5      	lsls	r5, r0, #31
1fff11ee:	0fed      	lsrs	r5, r5, #31
1fff11f0:	6920      	ldr	r0, [r4, #16]
1fff11f2:	2201      	movs	r2, #1
1fff11f4:	4310      	orrs	r0, r2
1fff11f6:	6120      	str	r0, [r4, #16]
1fff11f8:	6960      	ldr	r0, [r4, #20]
1fff11fa:	4388      	bics	r0, r1
1fff11fc:	6160      	str	r0, [r4, #20]
1fff11fe:	2d00      	cmp	r5, #0
1fff1200:	d007      	beq.n	0x1fff1212
1fff1202:	2079      	movs	r0, #121	@ 0x79
1fff1204:	f7ff f9a0 	bl	0x1fff0548
1fff1208:	6960      	ldr	r0, [r4, #20]
1fff120a:	2101      	movs	r1, #1
1fff120c:	06c9      	lsls	r1, r1, #27
1fff120e:	4308      	orrs	r0, r1
1fff1210:	6160      	str	r0, [r4, #20]
1fff1212:	4628      	mov	r0, r5
1fff1214:	bdf8      	pop	{r3, r4, r5, r6, r7, pc}
1fff1216:	0000      	movs	r0, r0
1fff1218:	2000      	movs	r0, #0
1fff121a:	4002      	ands	r2, r0
1fff121c:	2a3b      	cmp	r2, #59	@ 0x3b
1fff121e:	0819      	lsrs	r1, r3, #32
1fff1220:	6e7f      	ldr	r7, [r7, #100]	@ 0x64
1fff1222:	4c5d      	ldr	r4, [pc, #372]	@ (0x1fff1398)
1fff1224:	3100      	adds	r1, #0
1fff1226:	1fff      	subs	r7, r7, #7
1fff1228:	b57f      	push	{r0, r1, r2, r3, r4, r5, r6, lr}
1fff122a:	4c15      	ldr	r4, [pc, #84]	@ (0x1fff1280)
1fff122c:	f7ff f952 	bl	0x1fff04d4
1fff1230:	4605      	mov	r5, r0
1fff1232:	1ca9      	adds	r1, r5, #2
1fff1234:	4668      	mov	r0, sp
1fff1236:	f7ff f955 	bl	0x1fff04e4
1fff123a:	462a      	mov	r2, r5
1fff123c:	1c69      	adds	r1, r5, #1
1fff123e:	4668      	mov	r0, sp
1fff1240:	f7ff fad6 	bl	0x1fff07f0
1fff1244:	466a      	mov	r2, sp
1fff1246:	1951      	adds	r1, r2, r5
1fff1248:	7849      	ldrb	r1, [r1, #1]
1fff124a:	4288      	cmp	r0, r1
1fff124c:	d002      	beq.n	0x1fff1254
1fff124e:	2000      	movs	r0, #0
1fff1250:	b004      	add	sp, #16
1fff1252:	bd70      	pop	{r4, r5, r6, pc}
1fff1254:	2000      	movs	r0, #0
1fff1256:	2101      	movs	r1, #1
1fff1258:	1c6d      	adds	r5, r5, #1
1fff125a:	e005      	b.n	0x1fff1268
1fff125c:	5c16      	ldrb	r6, [r2, r0]
1fff125e:	460b      	mov	r3, r1
1fff1260:	40b3      	lsls	r3, r6
1fff1262:	439c      	bics	r4, r3
1fff1264:	1c40      	adds	r0, r0, #1
1fff1266:	b280      	uxth	r0, r0
1fff1268:	42a8      	cmp	r0, r5
1fff126a:	d3f7      	bcc.n	0x1fff125c
1fff126c:	4669      	mov	r1, sp
1fff126e:	700c      	strb	r4, [r1, #0]
1fff1270:	0a20      	lsrs	r0, r4, #8
1fff1272:	7048      	strb	r0, [r1, #1]
1fff1274:	2201      	movs	r2, #1
1fff1276:	4803      	ldr	r0, [pc, #12]	@ (0x1fff1284)
1fff1278:	f7ff ff5a 	bl	0x1fff1130
1fff127c:	e7e8      	b.n	0x1fff1250
1fff127e:	0000      	movs	r0, r0
1fff1280:	ffff 0000 	vaddl.u<illegal width 64>	q8, d15, d0
1fff1284:	3118      	adds	r1, #24
1fff1286:	1fff      	subs	r7, r7, #7
1fff1288:	b57c      	push	{r2, r3, r4, r5, r6, lr}
1fff128a:	4604      	mov	r4, r0
1fff128c:	2105      	movs	r1, #5
1fff128e:	4668      	mov	r0, sp
1fff1290:	f7ff f928 	bl	0x1fff04e4
1fff1294:	2200      	movs	r2, #0
1fff1296:	2104      	movs	r1, #4
1fff1298:	4668      	mov	r0, sp
1fff129a:	f7ff faa9 	bl	0x1fff07f0
1fff129e:	4669      	mov	r1, sp
1fff12a0:	7909      	ldrb	r1, [r1, #4]
1fff12a2:	4288      	cmp	r0, r1
1fff12a4:	d001      	beq.n	0x1fff12aa
1fff12a6:	2000      	movs	r0, #0
1fff12a8:	bd7c      	pop	{r2, r3, r4, r5, r6, pc}
1fff12aa:	2079      	movs	r0, #121	@ 0x79
1fff12ac:	f7ff f94c 	bl	0x1fff0548
1fff12b0:	466a      	mov	r2, sp
1fff12b2:	7811      	ldrb	r1, [r2, #0]
1fff12b4:	78d0      	ldrb	r0, [r2, #3]
1fff12b6:	0609      	lsls	r1, r1, #24
1fff12b8:	1840      	adds	r0, r0, r1
1fff12ba:	7851      	ldrb	r1, [r2, #1]
1fff12bc:	7892      	ldrb	r2, [r2, #2]
1fff12be:	0409      	lsls	r1, r1, #16
1fff12c0:	0212      	lsls	r2, r2, #8
1fff12c2:	1889      	adds	r1, r1, r2
1fff12c4:	1841      	adds	r1, r0, r1
1fff12c6:	6021      	str	r1, [r4, #0]
1fff12c8:	4a2c      	ldr	r2, [pc, #176]	@ (0x1fff137c)
1fff12ca:	4b2d      	ldr	r3, [pc, #180]	@ (0x1fff1380)
1fff12cc:	1a88      	subs	r0, r1, r2
1fff12ce:	4d2d      	ldr	r5, [pc, #180]	@ (0x1fff1384)
1fff12d0:	4291      	cmp	r1, r2
1fff12d2:	d02a      	beq.n	0x1fff132a
1fff12d4:	dc1d      	bgt.n	0x1fff1312
1fff12d6:	482c      	ldr	r0, [pc, #176]	@ (0x1fff1388)
1fff12d8:	1a0a      	subs	r2, r1, r0
1fff12da:	4281      	cmp	r1, r0
1fff12dc:	d023      	beq.n	0x1fff1326
1fff12de:	dc06      	bgt.n	0x1fff12ee
1fff12e0:	482a      	ldr	r0, [pc, #168]	@ (0x1fff138c)
1fff12e2:	1808      	adds	r0, r1, r0
1fff12e4:	d009      	beq.n	0x1fff12fa
1fff12e6:	492a      	ldr	r1, [pc, #168]	@ (0x1fff1390)
1fff12e8:	42c8      	cmn	r0, r1
1fff12ea:	d108      	bne.n	0x1fff12fe
1fff12ec:	e01d      	b.n	0x1fff132a
1fff12ee:	4829      	ldr	r0, [pc, #164]	@ (0x1fff1394)
1fff12f0:	1810      	adds	r0, r2, r0
1fff12f2:	d016      	beq.n	0x1fff1322
1fff12f4:	4928      	ldr	r1, [pc, #160]	@ (0x1fff1398)
1fff12f6:	42c8      	cmn	r0, r1
1fff12f8:	d101      	bne.n	0x1fff12fe
1fff12fa:	4828      	ldr	r0, [pc, #160]	@ (0x1fff139c)
1fff12fc:	6020      	str	r0, [r4, #0]
1fff12fe:	2201      	movs	r2, #1
1fff1300:	06d2      	lsls	r2, r2, #27
1fff1302:	4927      	ldr	r1, [pc, #156]	@ (0x1fff13a0)
1fff1304:	6820      	ldr	r0, [r4, #0]
1fff1306:	4290      	cmp	r0, r2
1fff1308:	d311      	bcc.n	0x1fff132e
1fff130a:	4288      	cmp	r0, r1
1fff130c:	d20f      	bcs.n	0x1fff132e
1fff130e:	2001      	movs	r0, #1
1fff1310:	bd7c      	pop	{r2, r3, r4, r5, r6, pc}
1fff1312:	2820      	cmp	r0, #32
1fff1314:	d007      	beq.n	0x1fff1326
1fff1316:	2834      	cmp	r0, #52	@ 0x34
1fff1318:	d005      	beq.n	0x1fff1326
1fff131a:	283c      	cmp	r0, #60	@ 0x3c
1fff131c:	d005      	beq.n	0x1fff132a
1fff131e:	2854      	cmp	r0, #84	@ 0x54
1fff1320:	d1ed      	bne.n	0x1fff12fe
1fff1322:	6025      	str	r5, [r4, #0]
1fff1324:	e7eb      	b.n	0x1fff12fe
1fff1326:	2003      	movs	r0, #3
1fff1328:	bd7c      	pop	{r2, r3, r4, r5, r6, pc}
1fff132a:	6023      	str	r3, [r4, #0]
1fff132c:	e7e7      	b.n	0x1fff12fe
1fff132e:	2201      	movs	r2, #1
1fff1330:	0752      	lsls	r2, r2, #29
1fff1332:	491c      	ldr	r1, [pc, #112]	@ (0x1fff13a4)
1fff1334:	4290      	cmp	r0, r2
1fff1336:	d303      	bcc.n	0x1fff1340
1fff1338:	4288      	cmp	r0, r1
1fff133a:	d201      	bcs.n	0x1fff1340
1fff133c:	2002      	movs	r0, #2
1fff133e:	bd7c      	pop	{r2, r3, r4, r5, r6, pc}
1fff1340:	4919      	ldr	r1, [pc, #100]	@ (0x1fff13a8)
1fff1342:	4288      	cmp	r0, r1
1fff1344:	d303      	bcc.n	0x1fff134e
1fff1346:	4298      	cmp	r0, r3
1fff1348:	d201      	bcs.n	0x1fff134e
1fff134a:	2005      	movs	r0, #5
1fff134c:	bd7c      	pop	{r2, r3, r4, r5, r6, pc}
1fff134e:	4298      	cmp	r0, r3
1fff1350:	d303      	bcc.n	0x1fff135a
1fff1352:	42a8      	cmp	r0, r5
1fff1354:	d201      	bcs.n	0x1fff135a
1fff1356:	2004      	movs	r0, #4
1fff1358:	bd7c      	pop	{r2, r3, r4, r5, r6, pc}
1fff135a:	4914      	ldr	r1, [pc, #80]	@ (0x1fff13ac)
1fff135c:	42a8      	cmp	r0, r5
1fff135e:	d303      	bcc.n	0x1fff1368
1fff1360:	4288      	cmp	r0, r1
1fff1362:	d201      	bcs.n	0x1fff1368
1fff1364:	2003      	movs	r0, #3
1fff1366:	bd7c      	pop	{r2, r3, r4, r5, r6, pc}
1fff1368:	4a11      	ldr	r2, [pc, #68]	@ (0x1fff13b0)
1fff136a:	4288      	cmp	r0, r1
1fff136c:	d303      	bcc.n	0x1fff1376
1fff136e:	4290      	cmp	r0, r2
1fff1370:	d201      	bcs.n	0x1fff1376
1fff1372:	2004      	movs	r0, #4
1fff1374:	bd7c      	pop	{r2, r3, r4, r5, r6, pc}
1fff1376:	2000      	movs	r0, #0
1fff1378:	bd7c      	pop	{r2, r3, r4, r5, r6, pc}
1fff137a:	0000      	movs	r0, r0
1fff137c:	f7ac 1fff 			@ <UNDEFINED> instruction: 0xf7ac1fff
1fff1380:	3000      	adds	r0, #0
1fff1382:	1fff      	subs	r7, r7, #7
1fff1384:	3100      	adds	r1, #0
1fff1386:	1fff      	subs	r7, r7, #7
1fff1388:	7a22      	ldrb	r2, [r4, #8]
1fff138a:	1fff      	subs	r7, r7, #7
1fff138c:	8822      	ldrh	r2, [r4, #0]
1fff138e:	e000      	b.n	0x1fff1392
1fff1390:	fdce ffff 	stc2l	15, cr15, [lr, #1020]	@ 0x3fc
1fff1394:	ba22      	rev	r2, r4
1fff1396:	ffff c95a 	vqrshrn.u64	d28, q5, #1
1fff139a:	ffff 0bfc 			@ <UNDEFINED> instruction: 0xffff0bfc
1fff139e:	1fff      	subs	r7, r7, #7
1fff13a0:	ffff 0801 	vtbl.8	d16, {d15}, d1
1fff13a4:	3fff      	subs	r7, #255	@ 0xff
1fff13a6:	2000      	movs	r0, #0
1fff13a8:	0000      	movs	r0, r0
1fff13aa:	1fff      	subs	r7, r7, #7
1fff13ac:	3200      	adds	r2, #0
1fff13ae:	1fff      	subs	r7, r7, #7
1fff13b0:	3800      	subs	r0, #0
1fff13b2:	1fff      	subs	r7, r7, #7
1fff13b4:	4802      	ldr	r0, [pc, #8]	@ (0x1fff13c0)
1fff13b6:	6881      	ldr	r1, [r0, #8]
1fff13b8:	6842      	ldr	r2, [r0, #4]
1fff13ba:	1889      	adds	r1, r1, r2
1fff13bc:	6081      	str	r1, [r0, #8]
1fff13be:	4770      	bx	lr
1fff13c0:	001c      	movs	r4, r3
1fff13c2:	2000      	movs	r0, #0
1fff13c4:	b510      	push	{r4, lr}
1fff13c6:	2400      	movs	r4, #0
1fff13c8:	2003      	movs	r0, #3
1fff13ca:	f000 f809 	bl	0x1fff13e0
1fff13ce:	2800      	cmp	r0, #0
1fff13d0:	d001      	beq.n	0x1fff13d6
1fff13d2:	2401      	movs	r4, #1
1fff13d4:	e001      	b.n	0x1fff13da
1fff13d6:	f000 f82b 	bl	0x1fff1430
1fff13da:	4620      	mov	r0, r4
1fff13dc:	bd10      	pop	{r4, pc}
1fff13de:	0000      	movs	r0, r0
1fff13e0:	b570      	push	{r4, r5, r6, lr}
1fff13e2:	4605      	mov	r5, r0
1fff13e4:	2400      	movs	r4, #0
1fff13e6:	4e10      	ldr	r6, [pc, #64]	@ (0x1fff1428)
1fff13e8:	6871      	ldr	r1, [r6, #4]
1fff13ea:	2900      	cmp	r1, #0
1fff13ec:	d019      	beq.n	0x1fff1422
1fff13ee:	207d      	movs	r0, #125	@ 0x7d
1fff13f0:	00c0      	lsls	r0, r0, #3
1fff13f2:	f7fe fe7d 	bl	0x1fff00f0
1fff13f6:	4601      	mov	r1, r0
1fff13f8:	480c      	ldr	r0, [pc, #48]	@ (0x1fff142c)
1fff13fa:	6800      	ldr	r0, [r0, #0]
1fff13fc:	f7fe fe78 	bl	0x1fff00f0
1fff1400:	f000 fb82 	bl	0x1fff1b08
1fff1404:	2800      	cmp	r0, #0
1fff1406:	d001      	beq.n	0x1fff140c
1fff1408:	2401      	movs	r4, #1
1fff140a:	e00b      	b.n	0x1fff1424
1fff140c:	2d04      	cmp	r5, #4
1fff140e:	d206      	bcs.n	0x1fff141e
1fff1410:	2200      	movs	r2, #0
1fff1412:	4629      	mov	r1, r5
1fff1414:	1e50      	subs	r0, r2, #1
1fff1416:	f000 f80c 	bl	0x1fff1432
1fff141a:	6035      	str	r5, [r6, #0]
1fff141c:	e002      	b.n	0x1fff1424
1fff141e:	2401      	movs	r4, #1
1fff1420:	e000      	b.n	0x1fff1424
1fff1422:	2401      	movs	r4, #1
1fff1424:	4620      	mov	r0, r4
1fff1426:	bd70      	pop	{r4, r5, r6, pc}
1fff1428:	001c      	movs	r4, r3
1fff142a:	2000      	movs	r0, #0
1fff142c:	0000      	movs	r0, r0
1fff142e:	2000      	movs	r0, #0
1fff1430:	4770      	bx	lr
1fff1432:	b510      	push	{r4, lr}
1fff1434:	f000 fb82 	bl	0x1fff1b3c
1fff1438:	bd10      	pop	{r4, pc}
1fff143a:	0000      	movs	r0, r0
1fff143c:	b5f8      	push	{r3, r4, r5, r6, r7, lr}
1fff143e:	4604      	mov	r4, r0
1fff1440:	460d      	mov	r5, r1
1fff1442:	2c00      	cmp	r4, #0
1fff1444:	d00f      	beq.n	0x1fff1466
1fff1446:	4854      	ldr	r0, [pc, #336]	@ (0x1fff1598)
1fff1448:	6800      	ldr	r0, [r0, #0]
1fff144a:	0780      	lsls	r0, r0, #30
1fff144c:	0f80      	lsrs	r0, r0, #30
1fff144e:	42a8      	cmp	r0, r5
1fff1450:	d218      	bcs.n	0x1fff1484
1fff1452:	4f51      	ldr	r7, [pc, #324]	@ (0x1fff1598)
1fff1454:	6838      	ldr	r0, [r7, #0]
1fff1456:	0880      	lsrs	r0, r0, #2
1fff1458:	0080      	lsls	r0, r0, #2
1fff145a:	4328      	orrs	r0, r5
1fff145c:	6038      	str	r0, [r7, #0]
1fff145e:	f7ff fbc7 	bl	0x1fff0bf0
1fff1462:	4606      	mov	r6, r0
1fff1464:	e009      	b.n	0x1fff147a
1fff1466:	2001      	movs	r0, #1
1fff1468:	bdf8      	pop	{r3, r4, r5, r6, r7, pc}
1fff146a:	f7ff fbc1 	bl	0x1fff0bf0
1fff146e:	1b81      	subs	r1, r0, r6
1fff1470:	484a      	ldr	r0, [pc, #296]	@ (0x1fff159c)
1fff1472:	4281      	cmp	r1, r0
1fff1474:	d901      	bls.n	0x1fff147a
1fff1476:	2003      	movs	r0, #3
1fff1478:	bdf8      	pop	{r3, r4, r5, r6, r7, pc}
1fff147a:	6838      	ldr	r0, [r7, #0]
1fff147c:	0780      	lsls	r0, r0, #30
1fff147e:	0f80      	lsrs	r0, r0, #30
1fff1480:	42a8      	cmp	r0, r5
1fff1482:	d1f2      	bne.n	0x1fff146a
1fff1484:	6820      	ldr	r0, [r4, #0]
1fff1486:	4e46      	ldr	r6, [pc, #280]	@ (0x1fff15a0)
1fff1488:	0781      	lsls	r1, r0, #30
1fff148a:	d50d      	bpl.n	0x1fff14a8
1fff148c:	0740      	lsls	r0, r0, #29
1fff148e:	d504      	bpl.n	0x1fff149a
1fff1490:	68b0      	ldr	r0, [r6, #8]
1fff1492:	2107      	movs	r1, #7
1fff1494:	0309      	lsls	r1, r1, #12
1fff1496:	4308      	orrs	r0, r1
1fff1498:	60b0      	str	r0, [r6, #8]
1fff149a:	68b0      	ldr	r0, [r6, #8]
1fff149c:	210f      	movs	r1, #15
1fff149e:	0209      	lsls	r1, r1, #8
1fff14a0:	4388      	bics	r0, r1
1fff14a2:	68a1      	ldr	r1, [r4, #8]
1fff14a4:	4308      	orrs	r0, r1
1fff14a6:	60b0      	str	r0, [r6, #8]
1fff14a8:	7820      	ldrb	r0, [r4, #0]
1fff14aa:	07c0      	lsls	r0, r0, #31
1fff14ac:	d03b      	beq.n	0x1fff1526
1fff14ae:	6860      	ldr	r0, [r4, #4]
1fff14b0:	2801      	cmp	r0, #1
1fff14b2:	d00c      	beq.n	0x1fff14ce
1fff14b4:	2800      	cmp	r0, #0
1fff14b6:	d00f      	beq.n	0x1fff14d8
1fff14b8:	2802      	cmp	r0, #2
1fff14ba:	d012      	beq.n	0x1fff14e2
1fff14bc:	4938      	ldr	r1, [pc, #224]	@ (0x1fff15a0)
1fff14be:	3140      	adds	r1, #64	@ 0x40
1fff14c0:	2804      	cmp	r0, #4
1fff14c2:	d013      	beq.n	0x1fff14ec
1fff14c4:	6a09      	ldr	r1, [r1, #32]
1fff14c6:	0789      	lsls	r1, r1, #30
1fff14c8:	d415      	bmi.n	0x1fff14f6
1fff14ca:	2001      	movs	r0, #1
1fff14cc:	bdf8      	pop	{r3, r4, r5, r6, r7, pc}
1fff14ce:	6831      	ldr	r1, [r6, #0]
1fff14d0:	0389      	lsls	r1, r1, #14
1fff14d2:	d410      	bmi.n	0x1fff14f6
1fff14d4:	2001      	movs	r0, #1
1fff14d6:	bdf8      	pop	{r3, r4, r5, r6, r7, pc}
1fff14d8:	6831      	ldr	r1, [r6, #0]
1fff14da:	0549      	lsls	r1, r1, #21
1fff14dc:	d40b      	bmi.n	0x1fff14f6
1fff14de:	2001      	movs	r0, #1
1fff14e0:	bdf8      	pop	{r3, r4, r5, r6, r7, pc}
1fff14e2:	6831      	ldr	r1, [r6, #0]
1fff14e4:	0189      	lsls	r1, r1, #6
1fff14e6:	d406      	bmi.n	0x1fff14f6
1fff14e8:	2001      	movs	r0, #1
1fff14ea:	bdf8      	pop	{r3, r4, r5, r6, r7, pc}
1fff14ec:	69c9      	ldr	r1, [r1, #28]
1fff14ee:	0789      	lsls	r1, r1, #30
1fff14f0:	d401      	bmi.n	0x1fff14f6
1fff14f2:	2001      	movs	r0, #1
1fff14f4:	bdf8      	pop	{r3, r4, r5, r6, r7, pc}
1fff14f6:	68b1      	ldr	r1, [r6, #8]
1fff14f8:	08c9      	lsrs	r1, r1, #3
1fff14fa:	00c9      	lsls	r1, r1, #3
1fff14fc:	4301      	orrs	r1, r0
1fff14fe:	60b1      	str	r1, [r6, #8]
1fff1500:	f7ff fb76 	bl	0x1fff0bf0
1fff1504:	4607      	mov	r7, r0
1fff1506:	e007      	b.n	0x1fff1518
1fff1508:	f7ff fb72 	bl	0x1fff0bf0
1fff150c:	1bc1      	subs	r1, r0, r7
1fff150e:	4823      	ldr	r0, [pc, #140]	@ (0x1fff159c)
1fff1510:	4281      	cmp	r1, r0
1fff1512:	d901      	bls.n	0x1fff1518
1fff1514:	2003      	movs	r0, #3
1fff1516:	bdf8      	pop	{r3, r4, r5, r6, r7, pc}
1fff1518:	68b0      	ldr	r0, [r6, #8]
1fff151a:	2138      	movs	r1, #56	@ 0x38
1fff151c:	4008      	ands	r0, r1
1fff151e:	6861      	ldr	r1, [r4, #4]
1fff1520:	00c9      	lsls	r1, r1, #3
1fff1522:	4288      	cmp	r0, r1
1fff1524:	d1f0      	bne.n	0x1fff1508
1fff1526:	481c      	ldr	r0, [pc, #112]	@ (0x1fff1598)
1fff1528:	6801      	ldr	r1, [r0, #0]
1fff152a:	0789      	lsls	r1, r1, #30
1fff152c:	0f89      	lsrs	r1, r1, #30
1fff152e:	42a9      	cmp	r1, r5
1fff1530:	d916      	bls.n	0x1fff1560
1fff1532:	6801      	ldr	r1, [r0, #0]
1fff1534:	0889      	lsrs	r1, r1, #2
1fff1536:	0089      	lsls	r1, r1, #2
1fff1538:	4329      	orrs	r1, r5
1fff153a:	6001      	str	r1, [r0, #0]
1fff153c:	f7ff fb58 	bl	0x1fff0bf0
1fff1540:	4607      	mov	r7, r0
1fff1542:	e007      	b.n	0x1fff1554
1fff1544:	f7ff fb54 	bl	0x1fff0bf0
1fff1548:	1bc1      	subs	r1, r0, r7
1fff154a:	4814      	ldr	r0, [pc, #80]	@ (0x1fff159c)
1fff154c:	4281      	cmp	r1, r0
1fff154e:	d901      	bls.n	0x1fff1554
1fff1550:	2003      	movs	r0, #3
1fff1552:	bdf8      	pop	{r3, r4, r5, r6, r7, pc}
1fff1554:	4810      	ldr	r0, [pc, #64]	@ (0x1fff1598)
1fff1556:	6800      	ldr	r0, [r0, #0]
1fff1558:	0780      	lsls	r0, r0, #30
1fff155a:	0f80      	lsrs	r0, r0, #30
1fff155c:	42a8      	cmp	r0, r5
1fff155e:	d1f1      	bne.n	0x1fff1544
1fff1560:	7820      	ldrb	r0, [r4, #0]
1fff1562:	0740      	lsls	r0, r0, #29
1fff1564:	d506      	bpl.n	0x1fff1574
1fff1566:	68b1      	ldr	r1, [r6, #8]
1fff1568:	2007      	movs	r0, #7
1fff156a:	0300      	lsls	r0, r0, #12
1fff156c:	4381      	bics	r1, r0
1fff156e:	68e0      	ldr	r0, [r4, #12]
1fff1570:	4301      	orrs	r1, r0
1fff1572:	60b1      	str	r1, [r6, #8]
1fff1574:	f000 f81c 	bl	0x1fff15b0
1fff1578:	68b1      	ldr	r1, [r6, #8]
1fff157a:	223c      	movs	r2, #60	@ 0x3c
1fff157c:	0989      	lsrs	r1, r1, #6
1fff157e:	4011      	ands	r1, r2
1fff1580:	4a08      	ldr	r2, [pc, #32]	@ (0x1fff15a4)
1fff1582:	5c51      	ldrb	r1, [r2, r1]
1fff1584:	06c9      	lsls	r1, r1, #27
1fff1586:	0ec9      	lsrs	r1, r1, #27
1fff1588:	40c8      	lsrs	r0, r1
1fff158a:	4907      	ldr	r1, [pc, #28]	@ (0x1fff15a8)
1fff158c:	6008      	str	r0, [r1, #0]
1fff158e:	4807      	ldr	r0, [pc, #28]	@ (0x1fff15ac)
1fff1590:	6800      	ldr	r0, [r0, #0]
1fff1592:	f7ff ff25 	bl	0x1fff13e0
1fff1596:	bdf8      	pop	{r3, r4, r5, r6, r7, pc}
1fff1598:	2000      	movs	r0, #0
1fff159a:	4002      	ands	r2, r0
1fff159c:	1388      	asrs	r0, r1, #14
1fff159e:	0000      	movs	r0, r0
1fff15a0:	1000      	asrs	r0, r0, #32
1fff15a2:	4002      	ands	r2, r0
1fff15a4:	2cc0      	cmp	r4, #192	@ 0xc0
1fff15a6:	1fff      	subs	r7, r7, #7
1fff15a8:	0000      	movs	r0, r0
1fff15aa:	2000      	movs	r0, #0
1fff15ac:	001c      	movs	r4, r3
1fff15ae:	2000      	movs	r0, #0
1fff15b0:	b510      	push	{r4, lr}
1fff15b2:	b08a      	sub	sp, #40	@ 0x28
1fff15b4:	2214      	movs	r2, #20
1fff15b6:	492d      	ldr	r1, [pc, #180]	@ (0x1fff166c)
1fff15b8:	a805      	add	r0, sp, #20
1fff15ba:	f7fe fdaf 	bl	0x1fff011c
1fff15be:	482b      	ldr	r0, [pc, #172]	@ (0x1fff166c)
1fff15c0:	ac01      	add	r4, sp, #4
1fff15c2:	3810      	subs	r0, #16
1fff15c4:	6ac3      	ldr	r3, [r0, #44]	@ 0x2c
1fff15c6:	6a82      	ldr	r2, [r0, #40]	@ 0x28
1fff15c8:	6a41      	ldr	r1, [r0, #36]	@ 0x24
1fff15ca:	6b00      	ldr	r0, [r0, #48]	@ 0x30
1fff15cc:	c40e      	stmia	r4!, {r1, r2, r3}
1fff15ce:	9004      	str	r0, [sp, #16]
1fff15d0:	4a27      	ldr	r2, [pc, #156]	@ (0x1fff1670)
1fff15d2:	6890      	ldr	r0, [r2, #8]
1fff15d4:	ab05      	add	r3, sp, #20
1fff15d6:	0680      	lsls	r0, r0, #26
1fff15d8:	0f40      	lsrs	r0, r0, #29
1fff15da:	d018      	beq.n	0x1fff160e
1fff15dc:	6890      	ldr	r0, [r2, #8]
1fff15de:	0680      	lsls	r0, r0, #26
1fff15e0:	0f40      	lsrs	r0, r0, #29
1fff15e2:	2801      	cmp	r0, #1
1fff15e4:	d023      	beq.n	0x1fff162e
1fff15e6:	6890      	ldr	r0, [r2, #8]
1fff15e8:	0680      	lsls	r0, r0, #26
1fff15ea:	0f40      	lsrs	r0, r0, #29
1fff15ec:	2802      	cmp	r0, #2
1fff15ee:	d020      	beq.n	0x1fff1632
1fff15f0:	6890      	ldr	r0, [r2, #8]
1fff15f2:	0680      	lsls	r0, r0, #26
1fff15f4:	0f41      	lsrs	r1, r0, #29
1fff15f6:	2001      	movs	r0, #1
1fff15f8:	03c0      	lsls	r0, r0, #15
1fff15fa:	2904      	cmp	r1, #4
1fff15fc:	d005      	beq.n	0x1fff160a
1fff15fe:	6891      	ldr	r1, [r2, #8]
1fff1600:	0689      	lsls	r1, r1, #26
1fff1602:	0f49      	lsrs	r1, r1, #29
1fff1604:	2903      	cmp	r1, #3
1fff1606:	d000      	beq.n	0x1fff160a
1fff1608:	2000      	movs	r0, #0
1fff160a:	b00a      	add	sp, #40	@ 0x28
1fff160c:	bd10      	pop	{r4, pc}
1fff160e:	6810      	ldr	r0, [r2, #0]
1fff1610:	2101      	movs	r1, #1
1fff1612:	0480      	lsls	r0, r0, #18
1fff1614:	0f40      	lsrs	r0, r0, #29
1fff1616:	4081      	lsls	r1, r0
1fff1618:	6850      	ldr	r0, [r2, #4]
1fff161a:	0400      	lsls	r0, r0, #16
1fff161c:	0f40      	lsrs	r0, r0, #29
1fff161e:	2804      	cmp	r0, #4
1fff1620:	d900      	bls.n	0x1fff1624
1fff1622:	2000      	movs	r0, #0
1fff1624:	0080      	lsls	r0, r0, #2
1fff1626:	5818      	ldr	r0, [r3, r0]
1fff1628:	f7fe fd62 	bl	0x1fff00f0
1fff162c:	e7ed      	b.n	0x1fff160a
1fff162e:	4811      	ldr	r0, [pc, #68]	@ (0x1fff1674)
1fff1630:	e7eb      	b.n	0x1fff160a
1fff1632:	68d0      	ldr	r0, [r2, #12]
1fff1634:	0780      	lsls	r0, r0, #30
1fff1636:	0f80      	lsrs	r0, r0, #30
1fff1638:	68d1      	ldr	r1, [r2, #12]
1fff163a:	240c      	movs	r4, #12
1fff163c:	4021      	ands	r1, r4
1fff163e:	ac01      	add	r4, sp, #4
1fff1640:	5861      	ldr	r1, [r4, r1]
1fff1642:	2802      	cmp	r0, #2
1fff1644:	d007      	beq.n	0x1fff1656
1fff1646:	2803      	cmp	r0, #3
1fff1648:	d002      	beq.n	0x1fff1650
1fff164a:	9809      	ldr	r0, [sp, #36]	@ 0x24
1fff164c:	4348      	muls	r0, r1
1fff164e:	e7dc      	b.n	0x1fff160a
1fff1650:	4808      	ldr	r0, [pc, #32]	@ (0x1fff1674)
1fff1652:	4348      	muls	r0, r1
1fff1654:	e7d9      	b.n	0x1fff160a
1fff1656:	6850      	ldr	r0, [r2, #4]
1fff1658:	0400      	lsls	r0, r0, #16
1fff165a:	0f40      	lsrs	r0, r0, #29
1fff165c:	2804      	cmp	r0, #4
1fff165e:	d900      	bls.n	0x1fff1662
1fff1660:	2000      	movs	r0, #0
1fff1662:	0080      	lsls	r0, r0, #2
1fff1664:	5818      	ldr	r0, [r3, r0]
1fff1666:	4348      	muls	r0, r1
1fff1668:	e7cf      	b.n	0x1fff160a
1fff166a:	0000      	movs	r0, r0
1fff166c:	2dec      	cmp	r5, #236	@ 0xec
1fff166e:	1fff      	subs	r7, r7, #7
1fff1670:	1000      	asrs	r0, r0, #32
1fff1672:	4002      	ands	r2, r0
1fff1674:	3600      	adds	r6, #0
1fff1676:	016e      	lsls	r6, r5, #5
1fff1678:	b5f0      	push	{r4, r5, r6, r7, lr}
1fff167a:	b087      	sub	sp, #28
1fff167c:	4604      	mov	r4, r0
1fff167e:	48fc      	ldr	r0, [pc, #1008]	@ (0x1fff1a70)
1fff1680:	6842      	ldr	r2, [r0, #4]
1fff1682:	6801      	ldr	r1, [r0, #0]
1fff1684:	9206      	str	r2, [sp, #24]
1fff1686:	9105      	str	r1, [sp, #20]
1fff1688:	68c1      	ldr	r1, [r0, #12]
1fff168a:	6880      	ldr	r0, [r0, #8]
1fff168c:	9104      	str	r1, [sp, #16]
1fff168e:	9003      	str	r0, [sp, #12]
1fff1690:	2c00      	cmp	r4, #0
1fff1692:	d00d      	beq.n	0x1fff16b0
1fff1694:	7820      	ldrb	r0, [r4, #0]
1fff1696:	2738      	movs	r7, #56	@ 0x38
1fff1698:	07c0      	lsls	r0, r0, #31
1fff169a:	4ef6      	ldr	r6, [pc, #984]	@ (0x1fff1a74)
1fff169c:	2800      	cmp	r0, #0
1fff169e:	d05f      	beq.n	0x1fff1760
1fff16a0:	68b0      	ldr	r0, [r6, #8]
1fff16a2:	4038      	ands	r0, r7
1fff16a4:	68f1      	ldr	r1, [r6, #12]
1fff16a6:	0789      	lsls	r1, r1, #30
1fff16a8:	0f89      	lsrs	r1, r1, #30
1fff16aa:	2810      	cmp	r0, #16
1fff16ac:	d003      	beq.n	0x1fff16b6
1fff16ae:	e004      	b.n	0x1fff16ba
1fff16b0:	2001      	movs	r0, #1
1fff16b2:	b007      	add	sp, #28
1fff16b4:	bdf0      	pop	{r4, r5, r6, r7, pc}
1fff16b6:	2903      	cmp	r1, #3
1fff16b8:	d015      	beq.n	0x1fff16e6
1fff16ba:	2808      	cmp	r0, #8
1fff16bc:	d013      	beq.n	0x1fff16e6
1fff16be:	6860      	ldr	r0, [r4, #4]
1fff16c0:	2800      	cmp	r0, #0
1fff16c2:	d007      	beq.n	0x1fff16d4
1fff16c4:	68a0      	ldr	r0, [r4, #8]
1fff16c6:	2800      	cmp	r0, #0
1fff16c8:	d015      	beq.n	0x1fff16f6
1fff16ca:	6931      	ldr	r1, [r6, #16]
1fff16cc:	0889      	lsrs	r1, r1, #2
1fff16ce:	0089      	lsls	r1, r1, #2
1fff16d0:	4301      	orrs	r1, r0
1fff16d2:	6131      	str	r1, [r6, #16]
1fff16d4:	2101      	movs	r1, #1
1fff16d6:	6860      	ldr	r0, [r4, #4]
1fff16d8:	0409      	lsls	r1, r1, #16
1fff16da:	4288      	cmp	r0, r1
1fff16dc:	d10d      	bne.n	0x1fff16fa
1fff16de:	6830      	ldr	r0, [r6, #0]
1fff16e0:	4308      	orrs	r0, r1
1fff16e2:	6030      	str	r0, [r6, #0]
1fff16e4:	e01c      	b.n	0x1fff1720
1fff16e6:	6830      	ldr	r0, [r6, #0]
1fff16e8:	0380      	lsls	r0, r0, #14
1fff16ea:	d539      	bpl.n	0x1fff1760
1fff16ec:	6860      	ldr	r0, [r4, #4]
1fff16ee:	2800      	cmp	r0, #0
1fff16f0:	d136      	bne.n	0x1fff1760
1fff16f2:	2001      	movs	r0, #1
1fff16f4:	e7dd      	b.n	0x1fff16b2
1fff16f6:	2001      	movs	r0, #1
1fff16f8:	e7db      	b.n	0x1fff16b2
1fff16fa:	2305      	movs	r3, #5
1fff16fc:	2201      	movs	r2, #1
1fff16fe:	041b      	lsls	r3, r3, #16
1fff1700:	0492      	lsls	r2, r2, #18
1fff1702:	4298      	cmp	r0, r3
1fff1704:	d106      	bne.n	0x1fff1714
1fff1706:	6830      	ldr	r0, [r6, #0]
1fff1708:	4310      	orrs	r0, r2
1fff170a:	6030      	str	r0, [r6, #0]
1fff170c:	6830      	ldr	r0, [r6, #0]
1fff170e:	4308      	orrs	r0, r1
1fff1710:	6030      	str	r0, [r6, #0]
1fff1712:	e005      	b.n	0x1fff1720
1fff1714:	6830      	ldr	r0, [r6, #0]
1fff1716:	4388      	bics	r0, r1
1fff1718:	6030      	str	r0, [r6, #0]
1fff171a:	6830      	ldr	r0, [r6, #0]
1fff171c:	4390      	bics	r0, r2
1fff171e:	6030      	str	r0, [r6, #0]
1fff1720:	6860      	ldr	r0, [r4, #4]
1fff1722:	2800      	cmp	r0, #0
1fff1724:	d00e      	beq.n	0x1fff1744
1fff1726:	f7ff fa63 	bl	0x1fff0bf0
1fff172a:	4605      	mov	r5, r0
1fff172c:	e006      	b.n	0x1fff173c
1fff172e:	f7ff fa5f 	bl	0x1fff0bf0
1fff1732:	1b40      	subs	r0, r0, r5
1fff1734:	28c8      	cmp	r0, #200	@ 0xc8
1fff1736:	d901      	bls.n	0x1fff173c
1fff1738:	2003      	movs	r0, #3
1fff173a:	e7ba      	b.n	0x1fff16b2
1fff173c:	6830      	ldr	r0, [r6, #0]
1fff173e:	0380      	lsls	r0, r0, #14
1fff1740:	d5f5      	bpl.n	0x1fff172e
1fff1742:	e00d      	b.n	0x1fff1760
1fff1744:	f7ff fa54 	bl	0x1fff0bf0
1fff1748:	4605      	mov	r5, r0
1fff174a:	e006      	b.n	0x1fff175a
1fff174c:	f7ff fa50 	bl	0x1fff0bf0
1fff1750:	1b40      	subs	r0, r0, r5
1fff1752:	28c8      	cmp	r0, #200	@ 0xc8
1fff1754:	d901      	bls.n	0x1fff175a
1fff1756:	2003      	movs	r0, #3
1fff1758:	e7ab      	b.n	0x1fff16b2
1fff175a:	6830      	ldr	r0, [r6, #0]
1fff175c:	0380      	lsls	r0, r0, #14
1fff175e:	d4f5      	bmi.n	0x1fff174c
1fff1760:	7820      	ldrb	r0, [r4, #0]
1fff1762:	0780      	lsls	r0, r0, #30
1fff1764:	d57b      	bpl.n	0x1fff185e
1fff1766:	68b5      	ldr	r5, [r6, #8]
1fff1768:	403d      	ands	r5, r7
1fff176a:	68f0      	ldr	r0, [r6, #12]
1fff176c:	0780      	lsls	r0, r0, #30
1fff176e:	0f80      	lsrs	r0, r0, #30
1fff1770:	2d10      	cmp	r5, #16
1fff1772:	d101      	bne.n	0x1fff1778
1fff1774:	2802      	cmp	r0, #2
1fff1776:	d014      	beq.n	0x1fff17a2
1fff1778:	2d00      	cmp	r5, #0
1fff177a:	d012      	beq.n	0x1fff17a2
1fff177c:	6960      	ldr	r0, [r4, #20]
1fff177e:	2800      	cmp	r0, #0
1fff1780:	d05a      	beq.n	0x1fff1838
1fff1782:	6830      	ldr	r0, [r6, #0]
1fff1784:	2107      	movs	r1, #7
1fff1786:	02c9      	lsls	r1, r1, #11
1fff1788:	4388      	bics	r0, r1
1fff178a:	69a1      	ldr	r1, [r4, #24]
1fff178c:	4308      	orrs	r0, r1
1fff178e:	6030      	str	r0, [r6, #0]
1fff1790:	6830      	ldr	r0, [r6, #0]
1fff1792:	21ff      	movs	r1, #255	@ 0xff
1fff1794:	3101      	adds	r1, #1
1fff1796:	4308      	orrs	r0, r1
1fff1798:	6030      	str	r0, [r6, #0]
1fff179a:	f7ff fa29 	bl	0x1fff0bf0
1fff179e:	4605      	mov	r5, r0
1fff17a0:	e040      	b.n	0x1fff1824
1fff17a2:	6830      	ldr	r0, [r6, #0]
1fff17a4:	0540      	lsls	r0, r0, #21
1fff17a6:	d502      	bpl.n	0x1fff17ae
1fff17a8:	6960      	ldr	r0, [r4, #20]
1fff17aa:	2800      	cmp	r0, #0
1fff17ac:	d009      	beq.n	0x1fff17c2
1fff17ae:	6870      	ldr	r0, [r6, #4]
1fff17b0:	69e1      	ldr	r1, [r4, #28]
1fff17b2:	0c00      	lsrs	r0, r0, #16
1fff17b4:	0400      	lsls	r0, r0, #16
1fff17b6:	4308      	orrs	r0, r1
1fff17b8:	6070      	str	r0, [r6, #4]
1fff17ba:	f7ff fa19 	bl	0x1fff0bf0
1fff17be:	4607      	mov	r7, r0
1fff17c0:	e008      	b.n	0x1fff17d4
1fff17c2:	2001      	movs	r0, #1
1fff17c4:	e775      	b.n	0x1fff16b2
1fff17c6:	f7ff fa13 	bl	0x1fff0bf0
1fff17ca:	1bc0      	subs	r0, r0, r7
1fff17cc:	2802      	cmp	r0, #2
1fff17ce:	d901      	bls.n	0x1fff17d4
1fff17d0:	2003      	movs	r0, #3
1fff17d2:	e76e      	b.n	0x1fff16b2
1fff17d4:	6830      	ldr	r0, [r6, #0]
1fff17d6:	0540      	lsls	r0, r0, #21
1fff17d8:	d5f5      	bpl.n	0x1fff17c6
1fff17da:	2d00      	cmp	r5, #0
1fff17dc:	d113      	bne.n	0x1fff1806
1fff17de:	6830      	ldr	r0, [r6, #0]
1fff17e0:	2107      	movs	r1, #7
1fff17e2:	02c9      	lsls	r1, r1, #11
1fff17e4:	4388      	bics	r0, r1
1fff17e6:	69a1      	ldr	r1, [r4, #24]
1fff17e8:	4308      	orrs	r0, r1
1fff17ea:	6030      	str	r0, [r6, #0]
1fff17ec:	f7ff fee0 	bl	0x1fff15b0
1fff17f0:	68b1      	ldr	r1, [r6, #8]
1fff17f2:	223c      	movs	r2, #60	@ 0x3c
1fff17f4:	0989      	lsrs	r1, r1, #6
1fff17f6:	4011      	ands	r1, r2
1fff17f8:	4a9f      	ldr	r2, [pc, #636]	@ (0x1fff1a78)
1fff17fa:	5c51      	ldrb	r1, [r2, r1]
1fff17fc:	06c9      	lsls	r1, r1, #27
1fff17fe:	0ec9      	lsrs	r1, r1, #27
1fff1800:	40c8      	lsrs	r0, r1
1fff1802:	499e      	ldr	r1, [pc, #632]	@ (0x1fff1a7c)
1fff1804:	6008      	str	r0, [r1, #0]
1fff1806:	489e      	ldr	r0, [pc, #632]	@ (0x1fff1a80)
1fff1808:	6800      	ldr	r0, [r0, #0]
1fff180a:	f7ff fde9 	bl	0x1fff13e0
1fff180e:	2800      	cmp	r0, #0
1fff1810:	d025      	beq.n	0x1fff185e
1fff1812:	2001      	movs	r0, #1
1fff1814:	e74d      	b.n	0x1fff16b2
1fff1816:	f7ff f9eb 	bl	0x1fff0bf0
1fff181a:	1b40      	subs	r0, r0, r5
1fff181c:	2802      	cmp	r0, #2
1fff181e:	d901      	bls.n	0x1fff1824
1fff1820:	2003      	movs	r0, #3
1fff1822:	e746      	b.n	0x1fff16b2
1fff1824:	6830      	ldr	r0, [r6, #0]
1fff1826:	0540      	lsls	r0, r0, #21
1fff1828:	d5f5      	bpl.n	0x1fff1816
1fff182a:	6870      	ldr	r0, [r6, #4]
1fff182c:	69e1      	ldr	r1, [r4, #28]
1fff182e:	0c00      	lsrs	r0, r0, #16
1fff1830:	0400      	lsls	r0, r0, #16
1fff1832:	4308      	orrs	r0, r1
1fff1834:	6070      	str	r0, [r6, #4]
1fff1836:	e012      	b.n	0x1fff185e
1fff1838:	6831      	ldr	r1, [r6, #0]
1fff183a:	20ff      	movs	r0, #255	@ 0xff
1fff183c:	3001      	adds	r0, #1
1fff183e:	4381      	bics	r1, r0
1fff1840:	6031      	str	r1, [r6, #0]
1fff1842:	f7ff f9d5 	bl	0x1fff0bf0
1fff1846:	4605      	mov	r5, r0
1fff1848:	e006      	b.n	0x1fff1858
1fff184a:	f7ff f9d1 	bl	0x1fff0bf0
1fff184e:	1b40      	subs	r0, r0, r5
1fff1850:	2802      	cmp	r0, #2
1fff1852:	d901      	bls.n	0x1fff1858
1fff1854:	2003      	movs	r0, #3
1fff1856:	e72c      	b.n	0x1fff16b2
1fff1858:	6830      	ldr	r0, [r6, #0]
1fff185a:	0540      	lsls	r0, r0, #21
1fff185c:	d4f5      	bmi.n	0x1fff184a
1fff185e:	7820      	ldrb	r0, [r4, #0]
1fff1860:	4d88      	ldr	r5, [pc, #544]	@ (0x1fff1a84)
1fff1862:	0700      	lsls	r0, r0, #28
1fff1864:	d534      	bpl.n	0x1fff18d0
1fff1866:	68b0      	ldr	r0, [r6, #8]
1fff1868:	0680      	lsls	r0, r0, #26
1fff186a:	0f40      	lsrs	r0, r0, #29
1fff186c:	2803      	cmp	r0, #3
1fff186e:	d00a      	beq.n	0x1fff1886
1fff1870:	6a20      	ldr	r0, [r4, #32]
1fff1872:	2800      	cmp	r0, #0
1fff1874:	d01a      	beq.n	0x1fff18ac
1fff1876:	6a28      	ldr	r0, [r5, #32]
1fff1878:	2101      	movs	r1, #1
1fff187a:	4308      	orrs	r0, r1
1fff187c:	6228      	str	r0, [r5, #32]
1fff187e:	f7ff f9b7 	bl	0x1fff0bf0
1fff1882:	4607      	mov	r7, r0
1fff1884:	e00e      	b.n	0x1fff18a4
1fff1886:	6a28      	ldr	r0, [r5, #32]
1fff1888:	0780      	lsls	r0, r0, #30
1fff188a:	d521      	bpl.n	0x1fff18d0
1fff188c:	6a20      	ldr	r0, [r4, #32]
1fff188e:	2800      	cmp	r0, #0
1fff1890:	d11e      	bne.n	0x1fff18d0
1fff1892:	2001      	movs	r0, #1
1fff1894:	e70d      	b.n	0x1fff16b2
1fff1896:	f7ff f9ab 	bl	0x1fff0bf0
1fff189a:	1bc0      	subs	r0, r0, r7
1fff189c:	2802      	cmp	r0, #2
1fff189e:	d901      	bls.n	0x1fff18a4
1fff18a0:	2003      	movs	r0, #3
1fff18a2:	e706      	b.n	0x1fff16b2
1fff18a4:	6a28      	ldr	r0, [r5, #32]
1fff18a6:	0780      	lsls	r0, r0, #30
1fff18a8:	d5f5      	bpl.n	0x1fff1896
1fff18aa:	e011      	b.n	0x1fff18d0
1fff18ac:	6a28      	ldr	r0, [r5, #32]
1fff18ae:	0840      	lsrs	r0, r0, #1
1fff18b0:	0040      	lsls	r0, r0, #1
1fff18b2:	6228      	str	r0, [r5, #32]
1fff18b4:	f7ff f99c 	bl	0x1fff0bf0
1fff18b8:	4607      	mov	r7, r0
1fff18ba:	e006      	b.n	0x1fff18ca
1fff18bc:	f7ff f998 	bl	0x1fff0bf0
1fff18c0:	1bc0      	subs	r0, r0, r7
1fff18c2:	2802      	cmp	r0, #2
1fff18c4:	d901      	bls.n	0x1fff18ca
1fff18c6:	2003      	movs	r0, #3
1fff18c8:	e6f3      	b.n	0x1fff16b2
1fff18ca:	6a28      	ldr	r0, [r5, #32]
1fff18cc:	0780      	lsls	r0, r0, #30
1fff18ce:	d4f5      	bmi.n	0x1fff18bc
1fff18d0:	7820      	ldrb	r0, [r4, #0]
1fff18d2:	0740      	lsls	r0, r0, #29
1fff18d4:	d572      	bpl.n	0x1fff19bc
1fff18d6:	2000      	movs	r0, #0
1fff18d8:	9002      	str	r0, [sp, #8]
1fff18da:	68b0      	ldr	r0, [r6, #8]
1fff18dc:	0680      	lsls	r0, r0, #26
1fff18de:	0f40      	lsrs	r0, r0, #29
1fff18e0:	2804      	cmp	r0, #4
1fff18e2:	d018      	beq.n	0x1fff1916
1fff18e4:	6bf0      	ldr	r0, [r6, #60]	@ 0x3c
1fff18e6:	00c0      	lsls	r0, r0, #3
1fff18e8:	d409      	bmi.n	0x1fff18fe
1fff18ea:	6bf1      	ldr	r1, [r6, #60]	@ 0x3c
1fff18ec:	2001      	movs	r0, #1
1fff18ee:	0700      	lsls	r0, r0, #28
1fff18f0:	4301      	orrs	r1, r0
1fff18f2:	63f1      	str	r1, [r6, #60]	@ 0x3c
1fff18f4:	6bf1      	ldr	r1, [r6, #60]	@ 0x3c
1fff18f6:	4001      	ands	r1, r0
1fff18f8:	9101      	str	r1, [sp, #4]
1fff18fa:	2001      	movs	r0, #1
1fff18fc:	9002      	str	r0, [sp, #8]
1fff18fe:	4862      	ldr	r0, [pc, #392]	@ (0x1fff1a88)
1fff1900:	6801      	ldr	r1, [r0, #0]
1fff1902:	05c9      	lsls	r1, r1, #23
1fff1904:	d41a      	bmi.n	0x1fff193c
1fff1906:	6801      	ldr	r1, [r0, #0]
1fff1908:	1582      	asrs	r2, r0, #22
1fff190a:	4311      	orrs	r1, r2
1fff190c:	6001      	str	r1, [r0, #0]
1fff190e:	f7ff f96f 	bl	0x1fff0bf0
1fff1912:	4607      	mov	r7, r0
1fff1914:	e00e      	b.n	0x1fff1934
1fff1916:	69e8      	ldr	r0, [r5, #28]
1fff1918:	0780      	lsls	r0, r0, #30
1fff191a:	d567      	bpl.n	0x1fff19ec
1fff191c:	68e0      	ldr	r0, [r4, #12]
1fff191e:	2800      	cmp	r0, #0
1fff1920:	d164      	bne.n	0x1fff19ec
1fff1922:	2001      	movs	r0, #1
1fff1924:	e6c5      	b.n	0x1fff16b2
1fff1926:	f7ff f963 	bl	0x1fff0bf0
1fff192a:	1bc0      	subs	r0, r0, r7
1fff192c:	2802      	cmp	r0, #2
1fff192e:	d901      	bls.n	0x1fff1934
1fff1930:	2003      	movs	r0, #3
1fff1932:	e6be      	b.n	0x1fff16b2
1fff1934:	4854      	ldr	r0, [pc, #336]	@ (0x1fff1a88)
1fff1936:	6800      	ldr	r0, [r0, #0]
1fff1938:	05c0      	lsls	r0, r0, #23
1fff193a:	d5f4      	bpl.n	0x1fff1926
1fff193c:	68e0      	ldr	r0, [r4, #12]
1fff193e:	2800      	cmp	r0, #0
1fff1940:	d008      	beq.n	0x1fff1954
1fff1942:	6920      	ldr	r0, [r4, #16]
1fff1944:	0381      	lsls	r1, r0, #14
1fff1946:	0f8a      	lsrs	r2, r1, #30
1fff1948:	4950      	ldr	r1, [pc, #320]	@ (0x1fff1a8c)
1fff194a:	d017      	beq.n	0x1fff197c
1fff194c:	6932      	ldr	r2, [r6, #16]
1fff194e:	438a      	bics	r2, r1
1fff1950:	4302      	orrs	r2, r0
1fff1952:	6132      	str	r2, [r6, #16]
1fff1954:	68e0      	ldr	r0, [r4, #12]
1fff1956:	2801      	cmp	r0, #1
1fff1958:	d017      	beq.n	0x1fff198a
1fff195a:	2104      	movs	r1, #4
1fff195c:	2805      	cmp	r0, #5
1fff195e:	d019      	beq.n	0x1fff1994
1fff1960:	69e8      	ldr	r0, [r5, #28]
1fff1962:	0840      	lsrs	r0, r0, #1
1fff1964:	0040      	lsls	r0, r0, #1
1fff1966:	61e8      	str	r0, [r5, #28]
1fff1968:	69e8      	ldr	r0, [r5, #28]
1fff196a:	4388      	bics	r0, r1
1fff196c:	61e8      	str	r0, [r5, #28]
1fff196e:	68e0      	ldr	r0, [r4, #12]
1fff1970:	2800      	cmp	r0, #0
1fff1972:	d024      	beq.n	0x1fff19be
1fff1974:	f7ff f93c 	bl	0x1fff0bf0
1fff1978:	4607      	mov	r7, r0
1fff197a:	e01b      	b.n	0x1fff19b4
1fff197c:	6930      	ldr	r0, [r6, #16]
1fff197e:	4388      	bics	r0, r1
1fff1980:	2101      	movs	r1, #1
1fff1982:	0449      	lsls	r1, r1, #17
1fff1984:	1840      	adds	r0, r0, r1
1fff1986:	6130      	str	r0, [r6, #16]
1fff1988:	e7e4      	b.n	0x1fff1954
1fff198a:	69e8      	ldr	r0, [r5, #28]
1fff198c:	2101      	movs	r1, #1
1fff198e:	4308      	orrs	r0, r1
1fff1990:	61e8      	str	r0, [r5, #28]
1fff1992:	e7ec      	b.n	0x1fff196e
1fff1994:	69e8      	ldr	r0, [r5, #28]
1fff1996:	4308      	orrs	r0, r1
1fff1998:	61e8      	str	r0, [r5, #28]
1fff199a:	69e8      	ldr	r0, [r5, #28]
1fff199c:	2101      	movs	r1, #1
1fff199e:	4308      	orrs	r0, r1
1fff19a0:	61e8      	str	r0, [r5, #28]
1fff19a2:	e7e4      	b.n	0x1fff196e
1fff19a4:	f7ff f924 	bl	0x1fff0bf0
1fff19a8:	1bc1      	subs	r1, r0, r7
1fff19aa:	4839      	ldr	r0, [pc, #228]	@ (0x1fff1a90)
1fff19ac:	4281      	cmp	r1, r0
1fff19ae:	d901      	bls.n	0x1fff19b4
1fff19b0:	2003      	movs	r0, #3
1fff19b2:	e67e      	b.n	0x1fff16b2
1fff19b4:	69e8      	ldr	r0, [r5, #28]
1fff19b6:	0780      	lsls	r0, r0, #30
1fff19b8:	d5f4      	bpl.n	0x1fff19a4
1fff19ba:	e00f      	b.n	0x1fff19dc
1fff19bc:	e016      	b.n	0x1fff19ec
1fff19be:	f7ff f917 	bl	0x1fff0bf0
1fff19c2:	4607      	mov	r7, r0
1fff19c4:	e007      	b.n	0x1fff19d6
1fff19c6:	f7ff f913 	bl	0x1fff0bf0
1fff19ca:	1bc1      	subs	r1, r0, r7
1fff19cc:	4830      	ldr	r0, [pc, #192]	@ (0x1fff1a90)
1fff19ce:	4281      	cmp	r1, r0
1fff19d0:	d901      	bls.n	0x1fff19d6
1fff19d2:	2003      	movs	r0, #3
1fff19d4:	e66d      	b.n	0x1fff16b2
1fff19d6:	69e8      	ldr	r0, [r5, #28]
1fff19d8:	0780      	lsls	r0, r0, #30
1fff19da:	d4f4      	bmi.n	0x1fff19c6
1fff19dc:	9802      	ldr	r0, [sp, #8]
1fff19de:	2801      	cmp	r0, #1
1fff19e0:	d104      	bne.n	0x1fff19ec
1fff19e2:	6bf0      	ldr	r0, [r6, #60]	@ 0x3c
1fff19e4:	2101      	movs	r1, #1
1fff19e6:	0709      	lsls	r1, r1, #28
1fff19e8:	4388      	bics	r0, r1
1fff19ea:	63f0      	str	r0, [r6, #60]	@ 0x3c
1fff19ec:	6a60      	ldr	r0, [r4, #36]	@ 0x24
1fff19ee:	2800      	cmp	r0, #0
1fff19f0:	d06f      	beq.n	0x1fff1ad2
1fff19f2:	68b1      	ldr	r1, [r6, #8]
1fff19f4:	0689      	lsls	r1, r1, #26
1fff19f6:	0f49      	lsrs	r1, r1, #29
1fff19f8:	2902      	cmp	r1, #2
1fff19fa:	d077      	beq.n	0x1fff1aec
1fff19fc:	2701      	movs	r7, #1
1fff19fe:	063f      	lsls	r7, r7, #24
1fff1a00:	2802      	cmp	r0, #2
1fff1a02:	d00a      	beq.n	0x1fff1a1a
1fff1a04:	6830      	ldr	r0, [r6, #0]
1fff1a06:	43b8      	bics	r0, r7
1fff1a08:	6030      	str	r0, [r6, #0]
1fff1a0a:	68f0      	ldr	r0, [r6, #12]
1fff1a0c:	0880      	lsrs	r0, r0, #2
1fff1a0e:	0080      	lsls	r0, r0, #2
1fff1a10:	60f0      	str	r0, [r6, #12]
1fff1a12:	f7ff f8ed 	bl	0x1fff0bf0
1fff1a16:	4604      	mov	r4, r0
1fff1a18:	e064      	b.n	0x1fff1ae4
1fff1a1a:	6830      	ldr	r0, [r6, #0]
1fff1a1c:	43b8      	bics	r0, r7
1fff1a1e:	6030      	str	r0, [r6, #0]
1fff1a20:	f7ff f8e6 	bl	0x1fff0bf0
1fff1a24:	4605      	mov	r5, r0
1fff1a26:	e006      	b.n	0x1fff1a36
1fff1a28:	f7ff f8e2 	bl	0x1fff0bf0
1fff1a2c:	1b40      	subs	r0, r0, r5
1fff1a2e:	2802      	cmp	r0, #2
1fff1a30:	d901      	bls.n	0x1fff1a36
1fff1a32:	2003      	movs	r0, #3
1fff1a34:	e63d      	b.n	0x1fff16b2
1fff1a36:	6830      	ldr	r0, [r6, #0]
1fff1a38:	0180      	lsls	r0, r0, #6
1fff1a3a:	d4f5      	bmi.n	0x1fff1a28
1fff1a3c:	6ae0      	ldr	r0, [r4, #44]	@ 0x2c
1fff1a3e:	0885      	lsrs	r5, r0, #2
1fff1a40:	6aa0      	ldr	r0, [r4, #40]	@ 0x28
1fff1a42:	2803      	cmp	r0, #3
1fff1a44:	d109      	bne.n	0x1fff1a5a
1fff1a46:	00a9      	lsls	r1, r5, #2
1fff1a48:	aa05      	add	r2, sp, #20
1fff1a4a:	5853      	ldr	r3, [r2, r1]
1fff1a4c:	4a11      	ldr	r2, [pc, #68]	@ (0x1fff1a94)
1fff1a4e:	4293      	cmp	r3, r2
1fff1a50:	d80c      	bhi.n	0x1fff1a6c
1fff1a52:	ab03      	add	r3, sp, #12
1fff1a54:	5859      	ldr	r1, [r3, r1]
1fff1a56:	4291      	cmp	r1, r2
1fff1a58:	d308      	bcc.n	0x1fff1a6c
1fff1a5a:	2802      	cmp	r0, #2
1fff1a5c:	d11c      	bne.n	0x1fff1a98
1fff1a5e:	f000 f89f 	bl	0x1fff1ba0
1fff1a62:	00aa      	lsls	r2, r5, #2
1fff1a64:	a905      	add	r1, sp, #20
1fff1a66:	5889      	ldr	r1, [r1, r2]
1fff1a68:	4288      	cmp	r0, r1
1fff1a6a:	d215      	bcs.n	0x1fff1a98
1fff1a6c:	2001      	movs	r0, #1
1fff1a6e:	e620      	b.n	0x1fff16b2
1fff1a70:	2ddc      	cmp	r5, #220	@ 0xdc
1fff1a72:	1fff      	subs	r7, r7, #7
1fff1a74:	1000      	asrs	r0, r0, #32
1fff1a76:	4002      	ands	r2, r0
1fff1a78:	2cc0      	cmp	r4, #192	@ 0xc0
1fff1a7a:	1fff      	subs	r7, r7, #7
1fff1a7c:	0000      	movs	r0, r0
1fff1a7e:	2000      	movs	r0, #0
1fff1a80:	001c      	movs	r4, r3
1fff1a82:	2000      	movs	r0, #0
1fff1a84:	1040      	asrs	r0, r0, #1
1fff1a86:	4002      	ands	r2, r0
1fff1a88:	7000      	strb	r0, [r0, #0]
1fff1a8a:	4000      	ands	r0, r0
1fff1a8c:	0000      	movs	r0, r0
1fff1a8e:	0003      	movs	r3, r0
1fff1a90:	1388      	asrs	r0, r1, #14
1fff1a92:	0000      	movs	r0, r0
1fff1a94:	3600      	adds	r6, #0
1fff1a96:	016e      	lsls	r6, r5, #5
1fff1a98:	68f0      	ldr	r0, [r6, #12]
1fff1a9a:	6aa1      	ldr	r1, [r4, #40]	@ 0x28
1fff1a9c:	0880      	lsrs	r0, r0, #2
1fff1a9e:	0080      	lsls	r0, r0, #2
1fff1aa0:	4308      	orrs	r0, r1
1fff1aa2:	60f0      	str	r0, [r6, #12]
1fff1aa4:	68f0      	ldr	r0, [r6, #12]
1fff1aa6:	210c      	movs	r1, #12
1fff1aa8:	4388      	bics	r0, r1
1fff1aaa:	6ae1      	ldr	r1, [r4, #44]	@ 0x2c
1fff1aac:	4308      	orrs	r0, r1
1fff1aae:	60f0      	str	r0, [r6, #12]
1fff1ab0:	6830      	ldr	r0, [r6, #0]
1fff1ab2:	4338      	orrs	r0, r7
1fff1ab4:	6030      	str	r0, [r6, #0]
1fff1ab6:	f7ff f89b 	bl	0x1fff0bf0
1fff1aba:	4604      	mov	r4, r0
1fff1abc:	e006      	b.n	0x1fff1acc
1fff1abe:	f7ff f897 	bl	0x1fff0bf0
1fff1ac2:	1b00      	subs	r0, r0, r4
1fff1ac4:	2802      	cmp	r0, #2
1fff1ac6:	d901      	bls.n	0x1fff1acc
1fff1ac8:	2003      	movs	r0, #3
1fff1aca:	e5f2      	b.n	0x1fff16b2
1fff1acc:	6830      	ldr	r0, [r6, #0]
1fff1ace:	0180      	lsls	r0, r0, #6
1fff1ad0:	d5f5      	bpl.n	0x1fff1abe
1fff1ad2:	e017      	b.n	0x1fff1b04
1fff1ad4:	f7ff f88c 	bl	0x1fff0bf0
1fff1ad8:	1b00      	subs	r0, r0, r4
1fff1ada:	2802      	cmp	r0, #2
1fff1adc:	d902      	bls.n	0x1fff1ae4
1fff1ade:	2003      	movs	r0, #3
1fff1ae0:	e5e7      	b.n	0x1fff16b2
1fff1ae2:	e003      	b.n	0x1fff1aec
1fff1ae4:	6830      	ldr	r0, [r6, #0]
1fff1ae6:	0180      	lsls	r0, r0, #6
1fff1ae8:	d4f4      	bmi.n	0x1fff1ad4
1fff1aea:	e00b      	b.n	0x1fff1b04
1fff1aec:	2801      	cmp	r0, #1
1fff1aee:	d007      	beq.n	0x1fff1b00
1fff1af0:	68f0      	ldr	r0, [r6, #12]
1fff1af2:	6aa1      	ldr	r1, [r4, #40]	@ 0x28
1fff1af4:	0780      	lsls	r0, r0, #30
1fff1af6:	0f80      	lsrs	r0, r0, #30
1fff1af8:	4288      	cmp	r0, r1
1fff1afa:	d003      	beq.n	0x1fff1b04
1fff1afc:	2001      	movs	r0, #1
1fff1afe:	e5d8      	b.n	0x1fff16b2
1fff1b00:	2001      	movs	r0, #1
1fff1b02:	e5d6      	b.n	0x1fff16b2
1fff1b04:	2000      	movs	r0, #0
1fff1b06:	e5d4      	b.n	0x1fff16b2
1fff1b08:	b510      	push	{r4, lr}
1fff1b0a:	4909      	ldr	r1, [pc, #36]	@ (0x1fff1b30)
1fff1b0c:	1e40      	subs	r0, r0, #1
1fff1b0e:	4288      	cmp	r0, r1
1fff1b10:	d901      	bls.n	0x1fff1b16
1fff1b12:	2001      	movs	r0, #1
1fff1b14:	bd10      	pop	{r4, pc}
1fff1b16:	4c07      	ldr	r4, [pc, #28]	@ (0x1fff1b34)
1fff1b18:	6160      	str	r0, [r4, #20]
1fff1b1a:	2103      	movs	r1, #3
1fff1b1c:	1f08      	subs	r0, r1, #4
1fff1b1e:	f000 f80d 	bl	0x1fff1b3c
1fff1b22:	2000      	movs	r0, #0
1fff1b24:	61a0      	str	r0, [r4, #24]
1fff1b26:	2007      	movs	r0, #7
1fff1b28:	6120      	str	r0, [r4, #16]
1fff1b2a:	2000      	movs	r0, #0
1fff1b2c:	bd10      	pop	{r4, pc}
1fff1b2e:	0000      	movs	r0, r0
1fff1b30:	ffff 00ff 	vshr.u64	q8, <illegal reg q15.5>, #1
1fff1b34:	e000      	b.n	0x1fff1b38
1fff1b36:	e000      	b.n	0x1fff1b3a
1fff1b38:	e7fe      	b.n	0x1fff1b38
1fff1b3a:	4770      	bx	lr
1fff1b3c:	0783      	lsls	r3, r0, #30
1fff1b3e:	22ff      	movs	r2, #255	@ 0xff
1fff1b40:	0edb      	lsrs	r3, r3, #27
1fff1b42:	409a      	lsls	r2, r3
1fff1b44:	0789      	lsls	r1, r1, #30
1fff1b46:	0e09      	lsrs	r1, r1, #24
1fff1b48:	4099      	lsls	r1, r3
1fff1b4a:	2800      	cmp	r0, #0
1fff1b4c:	da0b      	bge.n	0x1fff1b66
1fff1b4e:	0700      	lsls	r0, r0, #28
1fff1b50:	0f00      	lsrs	r0, r0, #28
1fff1b52:	3808      	subs	r0, #8
1fff1b54:	0883      	lsrs	r3, r0, #2
1fff1b56:	4808      	ldr	r0, [pc, #32]	@ (0x1fff1b78)
1fff1b58:	009b      	lsls	r3, r3, #2
1fff1b5a:	1818      	adds	r0, r3, r0
1fff1b5c:	69c3      	ldr	r3, [r0, #28]
1fff1b5e:	4393      	bics	r3, r2
1fff1b60:	430b      	orrs	r3, r1
1fff1b62:	61c3      	str	r3, [r0, #28]
1fff1b64:	4770      	bx	lr
1fff1b66:	0883      	lsrs	r3, r0, #2
1fff1b68:	4804      	ldr	r0, [pc, #16]	@ (0x1fff1b7c)
1fff1b6a:	009b      	lsls	r3, r3, #2
1fff1b6c:	1818      	adds	r0, r3, r0
1fff1b6e:	6803      	ldr	r3, [r0, #0]
1fff1b70:	4393      	bics	r3, r2
1fff1b72:	430b      	orrs	r3, r1
1fff1b74:	6003      	str	r3, [r0, #0]
1fff1b76:	4770      	bx	lr
1fff1b78:	ed00 e000 			@ <UNDEFINED> instruction: 0xed00e000
1fff1b7c:	e400      	b.n	0x1fff1380
1fff1b7e:	e000      	b.n	0x1fff1b82
1fff1b80:	f3bf 8f4f 	dsb	sy
1fff1b84:	4904      	ldr	r1, [pc, #16]	@ (0x1fff1b98)
1fff1b86:	4803      	ldr	r0, [pc, #12]	@ (0x1fff1b94)
1fff1b88:	60c8      	str	r0, [r1, #12]
1fff1b8a:	f3bf 8f4f 	dsb	sy
1fff1b8e:	bf00      	nop
1fff1b90:	e7fd      	b.n	0x1fff1b8e
1fff1b92:	0000      	movs	r0, r0
1fff1b94:	0004      	movs	r4, r0
1fff1b96:	05fa      	lsls	r2, r7, #23
1fff1b98:	ed00 e000 			@ <UNDEFINED> instruction: 0xed00e000
1fff1b9c:	4770      	bx	lr
1fff1b9e:	0000      	movs	r0, r0
1fff1ba0:	4803      	ldr	r0, [pc, #12]	@ (0x1fff1bb0)
1fff1ba2:	6840      	ldr	r0, [r0, #4]
1fff1ba4:	0400      	lsls	r0, r0, #16
1fff1ba6:	0f40      	lsrs	r0, r0, #29
1fff1ba8:	4902      	ldr	r1, [pc, #8]	@ (0x1fff1bb4)
1fff1baa:	0080      	lsls	r0, r0, #2
1fff1bac:	5808      	ldr	r0, [r1, r0]
1fff1bae:	4770      	bx	lr
1fff1bb0:	1000      	asrs	r0, r0, #32
1fff1bb2:	4002      	ands	r2, r0
1fff1bb4:	2d00      	cmp	r5, #0
1fff1bb6:	1fff      	subs	r7, r7, #7
1fff1bb8:	4770      	bx	lr
1fff1bba:	b510      	push	{r4, lr}
1fff1bbc:	f7ff fbfa 	bl	0x1fff13b4
1fff1bc0:	bd10      	pop	{r4, pc}
1fff1bc2:	0000      	movs	r0, r0
1fff1bc4:	4907      	ldr	r1, [pc, #28]	@ (0x1fff1be4)
1fff1bc6:	6848      	ldr	r0, [r1, #4]
1fff1bc8:	4a07      	ldr	r2, [pc, #28]	@ (0x1fff1be8)
1fff1bca:	0e40      	lsrs	r0, r0, #25
1fff1bcc:	8912      	ldrh	r2, [r2, #8]
1fff1bce:	0640      	lsls	r0, r0, #25
1fff1bd0:	0412      	lsls	r2, r2, #16
1fff1bd2:	4310      	orrs	r0, r2
1fff1bd4:	4a05      	ldr	r2, [pc, #20]	@ (0x1fff1bec)
1fff1bd6:	6892      	ldr	r2, [r2, #8]
1fff1bd8:	4310      	orrs	r0, r2
1fff1bda:	6048      	str	r0, [r1, #4]
1fff1bdc:	4905      	ldr	r1, [pc, #20]	@ (0x1fff1bf4)
1fff1bde:	4804      	ldr	r0, [pc, #16]	@ (0x1fff1bf0)
1fff1be0:	6088      	str	r0, [r1, #8]
1fff1be2:	4770      	bx	lr
1fff1be4:	1000      	asrs	r0, r0, #32
1fff1be6:	4002      	ands	r2, r0
1fff1be8:	3340      	adds	r3, #64	@ 0x40
1fff1bea:	1fff      	subs	r7, r7, #7
1fff1bec:	3200      	adds	r2, #0
1fff1bee:	1fff      	subs	r7, r7, #7
1fff1bf0:	0000      	movs	r0, r0
1fff1bf2:	1fff      	subs	r7, r7, #7
1fff1bf4:	ed00 e000 			@ <UNDEFINED> instruction: 0xed00e000
1fff1bf8:	b5f0      	push	{r4, r5, r6, r7, lr}
1fff1bfa:	b085      	sub	sp, #20
1fff1bfc:	4e57      	ldr	r6, [pc, #348]	@ (0x1fff1d5c)
1fff1bfe:	7934      	ldrb	r4, [r6, #4]
1fff1c00:	79b5      	ldrb	r5, [r6, #6]
1fff1c02:	7970      	ldrb	r0, [r6, #5]
1fff1c04:	9001      	str	r0, [sp, #4]
1fff1c06:	f000 fa6f 	bl	0x1fff20e8
1fff1c0a:	9000      	str	r0, [sp, #0]
1fff1c0c:	0760      	lsls	r0, r4, #29
1fff1c0e:	d50f      	bpl.n	0x1fff1c30
1fff1c10:	21ff      	movs	r1, #255	@ 0xff
1fff1c12:	3181      	adds	r1, #129	@ 0x81
1fff1c14:	4852      	ldr	r0, [pc, #328]	@ (0x1fff1d60)
1fff1c16:	f7fe fa9a 	bl	0x1fff014e
1fff1c1a:	4851      	ldr	r0, [pc, #324]	@ (0x1fff1d60)
1fff1c1c:	2140      	movs	r1, #64	@ 0x40
1fff1c1e:	6041      	str	r1, [r0, #4]
1fff1c20:	f000 fd88 	bl	0x1fff2734
1fff1c24:	2001      	movs	r0, #1
1fff1c26:	72b0      	strb	r0, [r6, #10]
1fff1c28:	2000      	movs	r0, #0
1fff1c2a:	7270      	strb	r0, [r6, #9]
1fff1c2c:	494d      	ldr	r1, [pc, #308]	@ (0x1fff1d64)
1fff1c2e:	7008      	strb	r0, [r1, #0]
1fff1c30:	7ab4      	ldrb	r4, [r6, #10]
1fff1c32:	402c      	ands	r4, r5
1fff1c34:	07e0      	lsls	r0, r4, #31
1fff1c36:	d006      	beq.n	0x1fff1c46
1fff1c38:	2000      	movs	r0, #0
1fff1c3a:	f000 fa7b 	bl	0x1fff2134
1fff1c3e:	f000 f8b3 	bl	0x1fff1da8
1fff1c42:	0864      	lsrs	r4, r4, #1
1fff1c44:	0064      	lsls	r4, r4, #1
1fff1c46:	2501      	movs	r5, #1
1fff1c48:	e037      	b.n	0x1fff1cba
1fff1c4a:	2701      	movs	r7, #1
1fff1c4c:	40af      	lsls	r7, r5
1fff1c4e:	4227      	tst	r7, r4
1fff1c50:	d031      	beq.n	0x1fff1cb6
1fff1c52:	4628      	mov	r0, r5
1fff1c54:	f000 fa6e 	bl	0x1fff2134
1fff1c58:	7d70      	ldrb	r0, [r6, #21]
1fff1c5a:	0740      	lsls	r0, r0, #29
1fff1c5c:	d503      	bpl.n	0x1fff1c66
1fff1c5e:	7d70      	ldrb	r0, [r6, #21]
1fff1c60:	21fb      	movs	r1, #251	@ 0xfb
1fff1c62:	4008      	ands	r0, r1
1fff1c64:	7570      	strb	r0, [r6, #21]
1fff1c66:	2014      	movs	r0, #20
1fff1c68:	4629      	mov	r1, r5
1fff1c6a:	4341      	muls	r1, r0
1fff1c6c:	483c      	ldr	r0, [pc, #240]	@ (0x1fff1d60)
1fff1c6e:	1808      	adds	r0, r1, r0
1fff1c70:	8d01      	ldrh	r1, [r0, #40]	@ 0x28
1fff1c72:	6b42      	ldr	r2, [r0, #52]	@ 0x34
1fff1c74:	428a      	cmp	r2, r1
1fff1c76:	d908      	bls.n	0x1fff1c8a
1fff1c78:	6b03      	ldr	r3, [r0, #48]	@ 0x30
1fff1c7a:	185b      	adds	r3, r3, r1
1fff1c7c:	6303      	str	r3, [r0, #48]	@ 0x30
1fff1c7e:	6b83      	ldr	r3, [r0, #56]	@ 0x38
1fff1c80:	185b      	adds	r3, r3, r1
1fff1c82:	6383      	str	r3, [r0, #56]	@ 0x38
1fff1c84:	1a52      	subs	r2, r2, r1
1fff1c86:	6342      	str	r2, [r0, #52]	@ 0x34
1fff1c88:	e007      	b.n	0x1fff1c9a
1fff1c8a:	6b03      	ldr	r3, [r0, #48]	@ 0x30
1fff1c8c:	189b      	adds	r3, r3, r2
1fff1c8e:	6303      	str	r3, [r0, #48]	@ 0x30
1fff1c90:	6b83      	ldr	r3, [r0, #56]	@ 0x38
1fff1c92:	189a      	adds	r2, r3, r2
1fff1c94:	6382      	str	r2, [r0, #56]	@ 0x38
1fff1c96:	2200      	movs	r2, #0
1fff1c98:	6342      	str	r2, [r0, #52]	@ 0x34
1fff1c9a:	6b42      	ldr	r2, [r0, #52]	@ 0x34
1fff1c9c:	2a00      	cmp	r2, #0
1fff1c9e:	d014      	beq.n	0x1fff1cca
1fff1ca0:	428a      	cmp	r2, r1
1fff1ca2:	d200      	bcs.n	0x1fff1ca6
1fff1ca4:	4611      	mov	r1, r2
1fff1ca6:	b28a      	uxth	r2, r1
1fff1ca8:	6b01      	ldr	r1, [r0, #48]	@ 0x30
1fff1caa:	4628      	mov	r0, r5
1fff1cac:	f000 fa48 	bl	0x1fff2140
1fff1cb0:	2001      	movs	r0, #1
1fff1cb2:	7570      	strb	r0, [r6, #21]
1fff1cb4:	43bc      	bics	r4, r7
1fff1cb6:	1c6d      	adds	r5, r5, #1
1fff1cb8:	b2ed      	uxtb	r5, r5
1fff1cba:	2c00      	cmp	r4, #0
1fff1cbc:	d1c5      	bne.n	0x1fff1c4a
1fff1cbe:	4827      	ldr	r0, [pc, #156]	@ (0x1fff1d5c)
1fff1cc0:	7a47      	ldrb	r7, [r0, #9]
1fff1cc2:	9801      	ldr	r0, [sp, #4]
1fff1cc4:	4007      	ands	r7, r0
1fff1cc6:	2601      	movs	r6, #1
1fff1cc8:	e041      	b.n	0x1fff1d4e
1fff1cca:	6b81      	ldr	r1, [r0, #56]	@ 0x38
1fff1ccc:	4628      	mov	r0, r5
1fff1cce:	2280      	movs	r2, #128	@ 0x80
1fff1cd0:	4310      	orrs	r0, r2
1fff1cd2:	f000 fcc5 	bl	0x1fff2660
1fff1cd6:	e7ed      	b.n	0x1fff1cb4
1fff1cd8:	2001      	movs	r0, #1
1fff1cda:	40b0      	lsls	r0, r6
1fff1cdc:	4238      	tst	r0, r7
1fff1cde:	9003      	str	r0, [sp, #12]
1fff1ce0:	d033      	beq.n	0x1fff1d4a
1fff1ce2:	4630      	mov	r0, r6
1fff1ce4:	f000 fa26 	bl	0x1fff2134
1fff1ce8:	481c      	ldr	r0, [pc, #112]	@ (0x1fff1d5c)
1fff1cea:	7e41      	ldrb	r1, [r0, #25]
1fff1cec:	07c9      	lsls	r1, r1, #31
1fff1cee:	d02a      	beq.n	0x1fff1d46
1fff1cf0:	8b85      	ldrh	r5, [r0, #28]
1fff1cf2:	2014      	movs	r0, #20
1fff1cf4:	4631      	mov	r1, r6
1fff1cf6:	4341      	muls	r1, r0
1fff1cf8:	4819      	ldr	r0, [pc, #100]	@ (0x1fff1d60)
1fff1cfa:	462a      	mov	r2, r5
1fff1cfc:	180c      	adds	r4, r1, r0
1fff1cfe:	9402      	str	r4, [sp, #8]
1fff1d00:	3480      	adds	r4, #128	@ 0x80
1fff1d02:	4630      	mov	r0, r6
1fff1d04:	6d21      	ldr	r1, [r4, #80]	@ 0x50
1fff1d06:	f000 fa05 	bl	0x1fff2114
1fff1d0a:	4814      	ldr	r0, [pc, #80]	@ (0x1fff1d5c)
1fff1d0c:	7e40      	ldrb	r0, [r0, #25]
1fff1d0e:	0841      	lsrs	r1, r0, #1
1fff1d10:	4812      	ldr	r0, [pc, #72]	@ (0x1fff1d5c)
1fff1d12:	0049      	lsls	r1, r1, #1
1fff1d14:	7641      	strb	r1, [r0, #25]
1fff1d16:	6d20      	ldr	r0, [r4, #80]	@ 0x50
1fff1d18:	1940      	adds	r0, r0, r5
1fff1d1a:	6520      	str	r0, [r4, #80]	@ 0x50
1fff1d1c:	6da0      	ldr	r0, [r4, #88]	@ 0x58
1fff1d1e:	1941      	adds	r1, r0, r5
1fff1d20:	65a1      	str	r1, [r4, #88]	@ 0x58
1fff1d22:	6d60      	ldr	r0, [r4, #84]	@ 0x54
1fff1d24:	1b40      	subs	r0, r0, r5
1fff1d26:	6560      	str	r0, [r4, #84]	@ 0x54
1fff1d28:	9c02      	ldr	r4, [sp, #8]
1fff1d2a:	34c0      	adds	r4, #192	@ 0xc0
1fff1d2c:	8922      	ldrh	r2, [r4, #8]
1fff1d2e:	42aa      	cmp	r2, r5
1fff1d30:	d801      	bhi.n	0x1fff1d36
1fff1d32:	2800      	cmp	r0, #0
1fff1d34:	d107      	bne.n	0x1fff1d46
1fff1d36:	4809      	ldr	r0, [pc, #36]	@ (0x1fff1d5c)
1fff1d38:	7a43      	ldrb	r3, [r0, #9]
1fff1d3a:	9a03      	ldr	r2, [sp, #12]
1fff1d3c:	4393      	bics	r3, r2
1fff1d3e:	7243      	strb	r3, [r0, #9]
1fff1d40:	4630      	mov	r0, r6
1fff1d42:	f000 fcc3 	bl	0x1fff26cc
1fff1d46:	9803      	ldr	r0, [sp, #12]
1fff1d48:	4387      	bics	r7, r0
1fff1d4a:	1c76      	adds	r6, r6, #1
1fff1d4c:	b2f6      	uxtb	r6, r6
1fff1d4e:	2f00      	cmp	r7, #0
1fff1d50:	d1c2      	bne.n	0x1fff1cd8
1fff1d52:	9800      	ldr	r0, [sp, #0]
1fff1d54:	f000 f9ee 	bl	0x1fff2134
1fff1d58:	b005      	add	sp, #20
1fff1d5a:	bdf0      	pop	{r4, r5, r6, r7, pc}
1fff1d5c:	5c00      	ldrb	r0, [r0, r0]
1fff1d5e:	4000      	ands	r0, r0
1fff1d60:	0200      	lsls	r0, r0, #8
1fff1d62:	2000      	movs	r0, #0
1fff1d64:	0038      	movs	r0, r7
1fff1d66:	2000      	movs	r0, #0
1fff1d68:	b510      	push	{r4, lr}
1fff1d6a:	f7ff ff45 	bl	0x1fff1bf8
1fff1d6e:	bd10      	pop	{r4, pc}
1fff1d70:	b430      	push	{r4, r5}
1fff1d72:	4674      	mov	r4, lr
1fff1d74:	1e64      	subs	r4, r4, #1
1fff1d76:	7825      	ldrb	r5, [r4, #0]
1fff1d78:	1c64      	adds	r4, r4, #1
1fff1d7a:	42ab      	cmp	r3, r5
1fff1d7c:	d200      	bcs.n	0x1fff1d80
1fff1d7e:	461d      	mov	r5, r3
1fff1d80:	5d63      	ldrb	r3, [r4, r5]
1fff1d82:	005b      	lsls	r3, r3, #1
1fff1d84:	18e3      	adds	r3, r4, r3
1fff1d86:	bc30      	pop	{r4, r5}
1fff1d88:	4718      	bx	r3
1fff1d8a:	e002      	b.n	0x1fff1d92
1fff1d8c:	c808      	ldmia	r0!, {r3}
1fff1d8e:	1f12      	subs	r2, r2, #4
1fff1d90:	c108      	stmia	r1!, {r3}
1fff1d92:	2a00      	cmp	r2, #0
1fff1d94:	d1fa      	bne.n	0x1fff1d8c
1fff1d96:	4770      	bx	lr
1fff1d98:	4770      	bx	lr
1fff1d9a:	2000      	movs	r0, #0
1fff1d9c:	e001      	b.n	0x1fff1da2
1fff1d9e:	c101      	stmia	r1!, {r0}
1fff1da0:	1f12      	subs	r2, r2, #4
1fff1da2:	2a00      	cmp	r2, #0
1fff1da4:	d1fb      	bne.n	0x1fff1d9e
1fff1da6:	4770      	bx	lr
1fff1da8:	b5f8      	push	{r3, r4, r5, r6, r7, lr}
1fff1daa:	4d39      	ldr	r5, [pc, #228]	@ (0x1fff1e90)
1fff1dac:	7c28      	ldrb	r0, [r5, #16]
1fff1dae:	2200      	movs	r2, #0
1fff1db0:	0741      	lsls	r1, r0, #29
1fff1db2:	4e38      	ldr	r6, [pc, #224]	@ (0x1fff1e94)
1fff1db4:	2900      	cmp	r1, #0
1fff1db6:	da05      	bge.n	0x1fff1dc4
1fff1db8:	7c28      	ldrb	r0, [r5, #16]
1fff1dba:	21fb      	movs	r1, #251	@ 0xfb
1fff1dbc:	4008      	ands	r0, r1
1fff1dbe:	7428      	strb	r0, [r5, #16]
1fff1dc0:	7032      	strb	r2, [r6, #0]
1fff1dc2:	bdf8      	pop	{r3, r4, r5, r6, r7, pc}
1fff1dc4:	06c1      	lsls	r1, r0, #27
1fff1dc6:	d501      	bpl.n	0x1fff1dcc
1fff1dc8:	2180      	movs	r1, #128	@ 0x80
1fff1dca:	7429      	strb	r1, [r5, #16]
1fff1dcc:	4c32      	ldr	r4, [pc, #200]	@ (0x1fff1e98)
1fff1dce:	7821      	ldrb	r1, [r4, #0]
1fff1dd0:	2900      	cmp	r1, #0
1fff1dd2:	d002      	beq.n	0x1fff1dda
1fff1dd4:	7821      	ldrb	r1, [r4, #0]
1fff1dd6:	7029      	strb	r1, [r5, #0]
1fff1dd8:	7022      	strb	r2, [r4, #0]
1fff1dda:	7831      	ldrb	r1, [r6, #0]
1fff1ddc:	000b      	movs	r3, r1
1fff1dde:	f7ff ffc7 	bl	0x1fff1d70
1fff1de2:	0607      	lsls	r7, r0, #24
1fff1de4:	051e      	lsls	r6, r3, #20
1fff1de6:	5131      	str	r1, [r6, r4]
1fff1de8:	5105      	str	r5, [r0, r4]
1fff1dea:	0005      	movs	r5, r0
1fff1dec:	e7e9      	b.n	0x1fff1dc2
1fff1dee:	07c0      	lsls	r0, r0, #31
1fff1df0:	d0e7      	beq.n	0x1fff1dc2
1fff1df2:	7c68      	ldrb	r0, [r5, #17]
1fff1df4:	2808      	cmp	r0, #8
1fff1df6:	d1e4      	bne.n	0x1fff1dc2
1fff1df8:	4927      	ldr	r1, [pc, #156]	@ (0x1fff1e98)
1fff1dfa:	2208      	movs	r2, #8
1fff1dfc:	3120      	adds	r1, #32
1fff1dfe:	460e      	mov	r6, r1
1fff1e00:	2000      	movs	r0, #0
1fff1e02:	f000 f987 	bl	0x1fff2114
1fff1e06:	8ce0      	ldrh	r0, [r4, #38]	@ 0x26
1fff1e08:	2800      	cmp	r0, #0
1fff1e0a:	d002      	beq.n	0x1fff1e12
1fff1e0c:	2040      	movs	r0, #64	@ 0x40
1fff1e0e:	7428      	strb	r0, [r5, #16]
1fff1e10:	e001      	b.n	0x1fff1e16
1fff1e12:	2048      	movs	r0, #72	@ 0x48
1fff1e14:	7428      	strb	r0, [r5, #16]
1fff1e16:	4630      	mov	r0, r6
1fff1e18:	f000 fbd0 	bl	0x1fff25bc
1fff1e1c:	bdf8      	pop	{r3, r4, r5, r6, r7, pc}
1fff1e1e:	4b1e      	ldr	r3, [pc, #120]	@ (0x1fff1e98)
1fff1e20:	8d21      	ldrh	r1, [r4, #40]	@ 0x28
1fff1e22:	6b60      	ldr	r0, [r4, #52]	@ 0x34
1fff1e24:	6b9b      	ldr	r3, [r3, #56]	@ 0x38
1fff1e26:	4288      	cmp	r0, r1
1fff1e28:	d904      	bls.n	0x1fff1e34
1fff1e2a:	185a      	adds	r2, r3, r1
1fff1e2c:	63a2      	str	r2, [r4, #56]	@ 0x38
1fff1e2e:	1a40      	subs	r0, r0, r1
1fff1e30:	6360      	str	r0, [r4, #52]	@ 0x34
1fff1e32:	e002      	b.n	0x1fff1e3a
1fff1e34:	1818      	adds	r0, r3, r0
1fff1e36:	63a0      	str	r0, [r4, #56]	@ 0x38
1fff1e38:	6362      	str	r2, [r4, #52]	@ 0x34
1fff1e3a:	2080      	movs	r0, #128	@ 0x80
1fff1e3c:	6ba1      	ldr	r1, [r4, #56]	@ 0x38
1fff1e3e:	f000 fc0f 	bl	0x1fff2660
1fff1e42:	bdf8      	pop	{r3, r4, r5, r6, r7, pc}
1fff1e44:	07c0      	lsls	r0, r0, #31
1fff1e46:	d0fc      	beq.n	0x1fff1e42
1fff1e48:	7c6f      	ldrb	r7, [r5, #17]
1fff1e4a:	4c13      	ldr	r4, [pc, #76]	@ (0x1fff1e98)
1fff1e4c:	463a      	mov	r2, r7
1fff1e4e:	3480      	adds	r4, #128	@ 0x80
1fff1e50:	2000      	movs	r0, #0
1fff1e52:	6d21      	ldr	r1, [r4, #80]	@ 0x50
1fff1e54:	f000 f95e 	bl	0x1fff2114
1fff1e58:	6d20      	ldr	r0, [r4, #80]	@ 0x50
1fff1e5a:	19c0      	adds	r0, r0, r7
1fff1e5c:	6520      	str	r0, [r4, #80]	@ 0x50
1fff1e5e:	6da0      	ldr	r0, [r4, #88]	@ 0x58
1fff1e60:	19c1      	adds	r1, r0, r7
1fff1e62:	65a1      	str	r1, [r4, #88]	@ 0x58
1fff1e64:	4620      	mov	r0, r4
1fff1e66:	3040      	adds	r0, #64	@ 0x40
1fff1e68:	8900      	ldrh	r0, [r0, #8]
1fff1e6a:	42b8      	cmp	r0, r7
1fff1e6c:	d907      	bls.n	0x1fff1e7e
1fff1e6e:	2000      	movs	r0, #0
1fff1e70:	f000 fc2c 	bl	0x1fff26cc
1fff1e74:	2048      	movs	r0, #72	@ 0x48
1fff1e76:	7428      	strb	r0, [r5, #16]
1fff1e78:	2004      	movs	r0, #4
1fff1e7a:	7030      	strb	r0, [r6, #0]
1fff1e7c:	bdf8      	pop	{r3, r4, r5, r6, r7, pc}
1fff1e7e:	2040      	movs	r0, #64	@ 0x40
1fff1e80:	7428      	strb	r0, [r5, #16]
1fff1e82:	bdf8      	pop	{r3, r4, r5, r6, r7, pc}
1fff1e84:	7032      	strb	r2, [r6, #0]
1fff1e86:	2100      	movs	r1, #0
1fff1e88:	2080      	movs	r0, #128	@ 0x80
1fff1e8a:	f000 fbe9 	bl	0x1fff2660
1fff1e8e:	bdf8      	pop	{r3, r4, r5, r6, r7, pc}
1fff1e90:	5c00      	ldrb	r0, [r0, r0]
1fff1e92:	4000      	ands	r0, r0
1fff1e94:	0038      	movs	r0, r7
1fff1e96:	2000      	movs	r0, #0
1fff1e98:	0200      	lsls	r0, r0, #8
1fff1e9a:	2000      	movs	r0, #0
1fff1e9c:	b5f8      	push	{r3, r4, r5, r6, r7, lr}
1fff1e9e:	4607      	mov	r7, r0
1fff1ea0:	460c      	mov	r4, r1
1fff1ea2:	4615      	mov	r5, r2
1fff1ea4:	7978      	ldrb	r0, [r7, #5]
1fff1ea6:	7939      	ldrb	r1, [r7, #4]
1fff1ea8:	0200      	lsls	r0, r0, #8
1fff1eaa:	4308      	orrs	r0, r1
1fff1eac:	b2c0      	uxtb	r0, r0
1fff1eae:	7879      	ldrb	r1, [r7, #1]
1fff1eb0:	2601      	movs	r6, #1
1fff1eb2:	000b      	movs	r3, r1
1fff1eb4:	f7ff ff5c 	bl	0x1fff1d70
1fff1eb8:	420c      	tst	r4, r1
1fff1eba:	1307      	asrs	r7, r0, #12
1fff1ebc:	421e      	tst	r6, r3
1fff1ebe:	4242      	negs	r2, r0
1fff1ec0:	4242      	negs	r2, r0
1fff1ec2:	3024      	adds	r0, #36	@ 0x24
1fff1ec4:	4239      	tst	r1, r7
1fff1ec6:	78f9      	ldrb	r1, [r7, #3]
1fff1ec8:	78ba      	ldrb	r2, [r7, #2]
1fff1eca:	0209      	lsls	r1, r1, #8
1fff1ecc:	4311      	orrs	r1, r2
1fff1ece:	0a0a      	lsrs	r2, r1, #8
1fff1ed0:	b2c9      	uxtb	r1, r1
1fff1ed2:	f000 feef 	bl	0x1fff2cb4
1fff1ed6:	6821      	ldr	r1, [r4, #0]
1fff1ed8:	7008      	strb	r0, [r1, #0]
1fff1eda:	602e      	str	r6, [r5, #0]
1fff1edc:	e02c      	b.n	0x1fff1f38
1fff1ede:	78f9      	ldrb	r1, [r7, #3]
1fff1ee0:	78ba      	ldrb	r2, [r7, #2]
1fff1ee2:	0209      	lsls	r1, r1, #8
1fff1ee4:	4311      	orrs	r1, r2
1fff1ee6:	b2c9      	uxtb	r1, r1
1fff1ee8:	f000 fee0 	bl	0x1fff2cac
1fff1eec:	6821      	ldr	r1, [r4, #0]
1fff1eee:	7008      	strb	r0, [r1, #0]
1fff1ef0:	602e      	str	r6, [r5, #0]
1fff1ef2:	e021      	b.n	0x1fff1f38
1fff1ef4:	f000 fedc 	bl	0x1fff2cb0
1fff1ef8:	6821      	ldr	r1, [r4, #0]
1fff1efa:	7008      	strb	r0, [r1, #0]
1fff1efc:	602e      	str	r6, [r5, #0]
1fff1efe:	e01b      	b.n	0x1fff1f38
1fff1f00:	7829      	ldrb	r1, [r5, #0]
1fff1f02:	9100      	str	r1, [sp, #0]
1fff1f04:	78f9      	ldrb	r1, [r7, #3]
1fff1f06:	78ba      	ldrb	r2, [r7, #2]
1fff1f08:	0209      	lsls	r1, r1, #8
1fff1f0a:	4311      	orrs	r1, r2
1fff1f0c:	0a0a      	lsrs	r2, r1, #8
1fff1f0e:	b2c9      	uxtb	r1, r1
1fff1f10:	6823      	ldr	r3, [r4, #0]
1fff1f12:	f000 fed3 	bl	0x1fff2cbc
1fff1f16:	e00f      	b.n	0x1fff1f38
1fff1f18:	78f9      	ldrb	r1, [r7, #3]
1fff1f1a:	78ba      	ldrb	r2, [r7, #2]
1fff1f1c:	0209      	lsls	r1, r1, #8
1fff1f1e:	4311      	orrs	r1, r2
1fff1f20:	0a0a      	lsrs	r2, r1, #8
1fff1f22:	b2c9      	uxtb	r1, r1
1fff1f24:	f000 fec8 	bl	0x1fff2cb8
1fff1f28:	e006      	b.n	0x1fff1f38
1fff1f2a:	78f9      	ldrb	r1, [r7, #3]
1fff1f2c:	78ba      	ldrb	r2, [r7, #2]
1fff1f2e:	0209      	lsls	r1, r1, #8
1fff1f30:	4311      	orrs	r1, r2
1fff1f32:	b2c9      	uxtb	r1, r1
1fff1f34:	f000 fec1 	bl	0x1fff2cba
1fff1f38:	2000      	movs	r0, #0
1fff1f3a:	bdf8      	pop	{r3, r4, r5, r6, r7, pc}
1fff1f3c:	2000      	movs	r0, #0
1fff1f3e:	43c0      	mvns	r0, r0
1fff1f40:	bdf8      	pop	{r3, r4, r5, r6, r7, pc}
1fff1f42:	0000      	movs	r0, r0
1fff1f44:	b510      	push	{r4, lr}
1fff1f46:	480a      	ldr	r0, [pc, #40]	@ (0x1fff1f70)
1fff1f48:	f000 f994 	bl	0x1fff2274
1fff1f4c:	4908      	ldr	r1, [pc, #32]	@ (0x1fff1f70)
1fff1f4e:	2222      	movs	r2, #34	@ 0x22
1fff1f50:	318c      	adds	r1, #140	@ 0x8c
1fff1f52:	4808      	ldr	r0, [pc, #32]	@ (0x1fff1f74)
1fff1f54:	f000 fc72 	bl	0x1fff283c
1fff1f58:	f000 f928 	bl	0x1fff21ac
1fff1f5c:	4806      	ldr	r0, [pc, #24]	@ (0x1fff1f78)
1fff1f5e:	f000 f913 	bl	0x1fff2188
1fff1f62:	4805      	ldr	r0, [pc, #20]	@ (0x1fff1f78)
1fff1f64:	3008      	adds	r0, #8
1fff1f66:	f000 f90f 	bl	0x1fff2188
1fff1f6a:	f000 fc73 	bl	0x1fff2854
1fff1f6e:	bd10      	pop	{r4, pc}
1fff1f70:	2d20      	cmp	r5, #32
1fff1f72:	1fff      	subs	r7, r7, #7
1fff1f74:	01dc      	lsls	r4, r3, #7
1fff1f76:	2000      	movs	r0, #0
1fff1f78:	0008      	movs	r0, r1
1fff1f7a:	2000      	movs	r0, #0
1fff1f7c:	b5f8      	push	{r3, r4, r5, r6, r7, lr}
1fff1f7e:	4607      	mov	r7, r0
1fff1f80:	460e      	mov	r6, r1
1fff1f82:	2400      	movs	r4, #0
1fff1f84:	09b0      	lsrs	r0, r6, #6
1fff1f86:	4d13      	ldr	r5, [pc, #76]	@ (0x1fff1fd4)
1fff1f88:	9000      	str	r0, [sp, #0]
1fff1f8a:	e00d      	b.n	0x1fff1fa8
1fff1f8c:	f7ff f80a 	bl	0x1fff0fa4
1fff1f90:	7828      	ldrb	r0, [r5, #0]
1fff1f92:	2800      	cmp	r0, #0
1fff1f94:	d0fa      	beq.n	0x1fff1f8c
1fff1f96:	2000      	movs	r0, #0
1fff1f98:	7028      	strb	r0, [r5, #0]
1fff1f9a:	01a0      	lsls	r0, r4, #6
1fff1f9c:	19c0      	adds	r0, r0, r7
1fff1f9e:	2240      	movs	r2, #64	@ 0x40
1fff1fa0:	490d      	ldr	r1, [pc, #52]	@ (0x1fff1fd8)
1fff1fa2:	f7fe f8bb 	bl	0x1fff011c
1fff1fa6:	1c64      	adds	r4, r4, #1
1fff1fa8:	9800      	ldr	r0, [sp, #0]
1fff1faa:	42a0      	cmp	r0, r4
1fff1fac:	d8f0      	bhi.n	0x1fff1f90
1fff1fae:	06b0      	lsls	r0, r6, #26
1fff1fb0:	d102      	bne.n	0x1fff1fb8
1fff1fb2:	bdf8      	pop	{r3, r4, r5, r6, r7, pc}
1fff1fb4:	f7fe fff6 	bl	0x1fff0fa4
1fff1fb8:	7828      	ldrb	r0, [r5, #0]
1fff1fba:	2800      	cmp	r0, #0
1fff1fbc:	d0fa      	beq.n	0x1fff1fb4
1fff1fbe:	2000      	movs	r0, #0
1fff1fc0:	7028      	strb	r0, [r5, #0]
1fff1fc2:	06b2      	lsls	r2, r6, #26
1fff1fc4:	01a0      	lsls	r0, r4, #6
1fff1fc6:	0e92      	lsrs	r2, r2, #26
1fff1fc8:	19c0      	adds	r0, r0, r7
1fff1fca:	4903      	ldr	r1, [pc, #12]	@ (0x1fff1fd8)
1fff1fcc:	f7fe f8a6 	bl	0x1fff011c
1fff1fd0:	bdf8      	pop	{r3, r4, r5, r6, r7, pc}
1fff1fd2:	0000      	movs	r0, r0
1fff1fd4:	0004      	movs	r4, r0
1fff1fd6:	2000      	movs	r0, #0
1fff1fd8:	003c      	movs	r4, r7
1fff1fda:	2000      	movs	r0, #0
1fff1fdc:	b5f0      	push	{r4, r5, r6, r7, lr}
1fff1fde:	b091      	sub	sp, #68	@ 0x44
1fff1fe0:	4607      	mov	r7, r0
1fff1fe2:	460e      	mov	r6, r1
1fff1fe4:	2400      	movs	r4, #0
1fff1fe6:	09b0      	lsrs	r0, r6, #6
1fff1fe8:	4d1c      	ldr	r5, [pc, #112]	@ (0x1fff205c)
1fff1fea:	9010      	str	r0, [sp, #64]	@ 0x40
1fff1fec:	e013      	b.n	0x1fff2016
1fff1fee:	01a0      	lsls	r0, r4, #6
1fff1ff0:	19c1      	adds	r1, r0, r7
1fff1ff2:	2240      	movs	r2, #64	@ 0x40
1fff1ff4:	2081      	movs	r0, #129	@ 0x81
1fff1ff6:	f000 fa6f 	bl	0x1fff24d8
1fff1ffa:	2800      	cmp	r0, #0
1fff1ffc:	da02      	bge.n	0x1fff2004
1fff1ffe:	2000      	movs	r0, #0
1fff2000:	b011      	add	sp, #68	@ 0x44
1fff2002:	bdf0      	pop	{r4, r5, r6, r7, pc}
1fff2004:	2001      	movs	r0, #1
1fff2006:	7068      	strb	r0, [r5, #1]
1fff2008:	e001      	b.n	0x1fff200e
1fff200a:	f7fe ffcb 	bl	0x1fff0fa4
1fff200e:	7868      	ldrb	r0, [r5, #1]
1fff2010:	2801      	cmp	r0, #1
1fff2012:	d0fa      	beq.n	0x1fff200a
1fff2014:	1c64      	adds	r4, r4, #1
1fff2016:	9810      	ldr	r0, [sp, #64]	@ 0x40
1fff2018:	42a0      	cmp	r0, r4
1fff201a:	d8e8      	bhi.n	0x1fff1fee
1fff201c:	06b0      	lsls	r0, r6, #26
1fff201e:	d01b      	beq.n	0x1fff2058
1fff2020:	2140      	movs	r1, #64	@ 0x40
1fff2022:	4668      	mov	r0, sp
1fff2024:	f7fe f893 	bl	0x1fff014e
1fff2028:	01a0      	lsls	r0, r4, #6
1fff202a:	06b2      	lsls	r2, r6, #26
1fff202c:	19c1      	adds	r1, r0, r7
1fff202e:	0e92      	lsrs	r2, r2, #26
1fff2030:	4668      	mov	r0, sp
1fff2032:	f7fe f873 	bl	0x1fff011c
1fff2036:	2240      	movs	r2, #64	@ 0x40
1fff2038:	4669      	mov	r1, sp
1fff203a:	2081      	movs	r0, #129	@ 0x81
1fff203c:	f000 fa4c 	bl	0x1fff24d8
1fff2040:	2800      	cmp	r0, #0
1fff2042:	da01      	bge.n	0x1fff2048
1fff2044:	2000      	movs	r0, #0
1fff2046:	e7db      	b.n	0x1fff2000
1fff2048:	2001      	movs	r0, #1
1fff204a:	7068      	strb	r0, [r5, #1]
1fff204c:	e001      	b.n	0x1fff2052
1fff204e:	f7fe ffa9 	bl	0x1fff0fa4
1fff2052:	7868      	ldrb	r0, [r5, #1]
1fff2054:	2801      	cmp	r0, #1
1fff2056:	d0fa      	beq.n	0x1fff204e
1fff2058:	2001      	movs	r0, #1
1fff205a:	e7d1      	b.n	0x1fff2000
1fff205c:	0004      	movs	r4, r0
1fff205e:	2000      	movs	r0, #0
1fff2060:	4809      	ldr	r0, [pc, #36]	@ (0x1fff2088)
1fff2062:	7801      	ldrb	r1, [r0, #0]
1fff2064:	2900      	cmp	r1, #0
1fff2066:	d008      	beq.n	0x1fff207a
1fff2068:	2100      	movs	r1, #0
1fff206a:	7001      	strb	r1, [r0, #0]
1fff206c:	2000      	movs	r0, #0
1fff206e:	4907      	ldr	r1, [pc, #28]	@ (0x1fff208c)
1fff2070:	5c0a      	ldrb	r2, [r1, r0]
1fff2072:	2a7f      	cmp	r2, #127	@ 0x7f
1fff2074:	d003      	beq.n	0x1fff207e
1fff2076:	2000      	movs	r0, #0
1fff2078:	4770      	bx	lr
1fff207a:	2000      	movs	r0, #0
1fff207c:	4770      	bx	lr
1fff207e:	1c40      	adds	r0, r0, #1
1fff2080:	2840      	cmp	r0, #64	@ 0x40
1fff2082:	dbf5      	blt.n	0x1fff2070
1fff2084:	2001      	movs	r0, #1
1fff2086:	4770      	bx	lr
1fff2088:	0004      	movs	r4, r0
1fff208a:	2000      	movs	r0, #0
1fff208c:	003c      	movs	r4, r7
1fff208e:	2000      	movs	r0, #0
1fff2090:	4802      	ldr	r0, [pc, #8]	@ (0x1fff209c)
1fff2092:	7f40      	ldrb	r0, [r0, #29]
1fff2094:	2800      	cmp	r0, #0
1fff2096:	d000      	beq.n	0x1fff209a
1fff2098:	2001      	movs	r0, #1
1fff209a:	4770      	bx	lr
1fff209c:	01bc      	lsls	r4, r7, #6
1fff209e:	2000      	movs	r0, #0
1fff20a0:	f7fe ff5e 	bl	0x1fff0f60
1fff20a4:	f7ff f98e 	bl	0x1fff13c4
1fff20a8:	f7fe fdda 	bl	0x1fff0c60
1fff20ac:	480a      	ldr	r0, [pc, #40]	@ (0x1fff20d8)
1fff20ae:	f7fe fe09 	bl	0x1fff0cc4
1fff20b2:	480a      	ldr	r0, [pc, #40]	@ (0x1fff20dc)
1fff20b4:	f7fe fe06 	bl	0x1fff0cc4
1fff20b8:	4809      	ldr	r0, [pc, #36]	@ (0x1fff20e0)
1fff20ba:	f7fe fe03 	bl	0x1fff0cc4
1fff20be:	4809      	ldr	r0, [pc, #36]	@ (0x1fff20e4)
1fff20c0:	f7fe fe00 	bl	0x1fff0cc4
1fff20c4:	f7fe fbca 	bl	0x1fff085c
1fff20c8:	f7fe ff26 	bl	0x1fff0f18
1fff20cc:	f7fe f88a 	bl	0x1fff01e4
1fff20d0:	f7fe f8e6 	bl	0x1fff02a0
1fff20d4:	e7fc      	b.n	0x1fff20d0
1fff20d6:	0000      	movs	r0, r0
1fff20d8:	3800      	subs	r0, #0
1fff20da:	4001      	ands	r1, r0
1fff20dc:	4400      	add	r0, r0
1fff20de:	4000      	ands	r0, r0
1fff20e0:	4800      	ldr	r0, [pc, #0]	@ (0x1fff20e4)
1fff20e2:	4000      	ands	r0, r0
1fff20e4:	4c00      	ldr	r4, [pc, #0]	@ (0x1fff20e8)
1fff20e6:	4000      	ands	r0, r0
1fff20e8:	4801      	ldr	r0, [pc, #4]	@ (0x1fff20f0)
1fff20ea:	7b80      	ldrb	r0, [r0, #14]
1fff20ec:	4770      	bx	lr
1fff20ee:	0000      	movs	r0, r0
1fff20f0:	5c00      	ldrb	r0, [r0, r0]
1fff20f2:	4000      	ands	r0, r0
1fff20f4:	4603      	mov	r3, r0
1fff20f6:	2001      	movs	r0, #1
1fff20f8:	00c2      	lsls	r2, r0, #3
1fff20fa:	4293      	cmp	r3, r2
1fff20fc:	d801      	bhi.n	0x1fff2102
1fff20fe:	800a      	strh	r2, [r1, #0]
1fff2100:	4770      	bx	lr
1fff2102:	1c40      	adds	r0, r0, #1
1fff2104:	b2c0      	uxtb	r0, r0
1fff2106:	2808      	cmp	r0, #8
1fff2108:	d9f6      	bls.n	0x1fff20f8
1fff210a:	2000      	movs	r0, #0
1fff210c:	8008      	strh	r0, [r1, #0]
1fff210e:	2001      	movs	r0, #1
1fff2110:	4770      	bx	lr
1fff2112:	0000      	movs	r0, r0
1fff2114:	4b06      	ldr	r3, [pc, #24]	@ (0x1fff2130)
1fff2116:	0080      	lsls	r0, r0, #2
1fff2118:	18c0      	adds	r0, r0, r3
1fff211a:	2a00      	cmp	r2, #0
1fff211c:	d105      	bne.n	0x1fff212a
1fff211e:	4770      	bx	lr
1fff2120:	7803      	ldrb	r3, [r0, #0]
1fff2122:	700b      	strb	r3, [r1, #0]
1fff2124:	1c49      	adds	r1, r1, #1
1fff2126:	1e52      	subs	r2, r2, #1
1fff2128:	b292      	uxth	r2, r2
1fff212a:	2a00      	cmp	r2, #0
1fff212c:	d1f8      	bne.n	0x1fff2120
1fff212e:	4770      	bx	lr
1fff2130:	5c20      	ldrb	r0, [r4, r0]
1fff2132:	4000      	ands	r0, r0
1fff2134:	4901      	ldr	r1, [pc, #4]	@ (0x1fff213c)
1fff2136:	7388      	strb	r0, [r1, #14]
1fff2138:	4770      	bx	lr
1fff213a:	0000      	movs	r0, r0
1fff213c:	5c00      	ldrb	r0, [r0, r0]
1fff213e:	4000      	ands	r0, r0
1fff2140:	4b06      	ldr	r3, [pc, #24]	@ (0x1fff215c)
1fff2142:	0080      	lsls	r0, r0, #2
1fff2144:	18c0      	adds	r0, r0, r3
1fff2146:	2a00      	cmp	r2, #0
1fff2148:	d105      	bne.n	0x1fff2156
1fff214a:	4770      	bx	lr
1fff214c:	780b      	ldrb	r3, [r1, #0]
1fff214e:	1c49      	adds	r1, r1, #1
1fff2150:	7003      	strb	r3, [r0, #0]
1fff2152:	1e52      	subs	r2, r2, #1
1fff2154:	b292      	uxth	r2, r2
1fff2156:	2a00      	cmp	r2, #0
1fff2158:	d1f8      	bne.n	0x1fff214c
1fff215a:	4770      	bx	lr
1fff215c:	5c20      	ldrb	r0, [r4, r0]
1fff215e:	4000      	ands	r0, r0
1fff2160:	b510      	push	{r4, lr}
1fff2162:	f000 f80f 	bl	0x1fff2184
1fff2166:	2000      	movs	r0, #0
1fff2168:	f7ff ffe4 	bl	0x1fff2134
1fff216c:	4804      	ldr	r0, [pc, #16]	@ (0x1fff2180)
1fff216e:	2100      	movs	r1, #0
1fff2170:	7001      	strb	r1, [r0, #0]
1fff2172:	2204      	movs	r2, #4
1fff2174:	7202      	strb	r2, [r0, #8]
1fff2176:	2201      	movs	r2, #1
1fff2178:	7282      	strb	r2, [r0, #10]
1fff217a:	7241      	strb	r1, [r0, #9]
1fff217c:	2000      	movs	r0, #0
1fff217e:	bd10      	pop	{r4, pc}
1fff2180:	5c00      	ldrb	r0, [r0, r0]
1fff2182:	4000      	ands	r0, r0
1fff2184:	4770      	bx	lr
1fff2186:	0000      	movs	r0, r0
1fff2188:	b510      	push	{r4, lr}
1fff218a:	7802      	ldrb	r2, [r0, #0]
1fff218c:	6841      	ldr	r1, [r0, #4]
1fff218e:	4c06      	ldr	r4, [pc, #24]	@ (0x1fff21a8)
1fff2190:	0650      	lsls	r0, r2, #25
1fff2192:	0dc0      	lsrs	r0, r0, #23
1fff2194:	1900      	adds	r0, r0, r4
1fff2196:	30ff      	adds	r0, #255	@ 0xff
1fff2198:	0613      	lsls	r3, r2, #24
1fff219a:	3001      	adds	r0, #1
1fff219c:	2b00      	cmp	r3, #0
1fff219e:	da01      	bge.n	0x1fff21a4
1fff21a0:	61c1      	str	r1, [r0, #28]
1fff21a2:	bd10      	pop	{r4, pc}
1fff21a4:	63c1      	str	r1, [r0, #60]	@ 0x3c
1fff21a6:	bd10      	pop	{r4, pc}
1fff21a8:	007c      	lsls	r4, r7, #1
1fff21aa:	2000      	movs	r0, #0
1fff21ac:	4b07      	ldr	r3, [pc, #28]	@ (0x1fff21cc)
1fff21ae:	7f99      	ldrb	r1, [r3, #30]
1fff21b0:	7701      	strb	r1, [r0, #28]
1fff21b2:	4907      	ldr	r1, [pc, #28]	@ (0x1fff21d0)
1fff21b4:	e000      	b.n	0x1fff21b8
1fff21b6:	4611      	mov	r1, r2
1fff21b8:	680a      	ldr	r2, [r1, #0]
1fff21ba:	2a00      	cmp	r2, #0
1fff21bc:	d1fb      	bne.n	0x1fff21b6
1fff21be:	6008      	str	r0, [r1, #0]
1fff21c0:	2100      	movs	r1, #0
1fff21c2:	6001      	str	r1, [r0, #0]
1fff21c4:	7f98      	ldrb	r0, [r3, #30]
1fff21c6:	1c40      	adds	r0, r0, #1
1fff21c8:	7798      	strb	r0, [r3, #30]
1fff21ca:	4770      	bx	lr
1fff21cc:	01bc      	lsls	r4, r7, #6
1fff21ce:	2000      	movs	r0, #0
1fff21d0:	0028      	movs	r0, r5
1fff21d2:	2000      	movs	r0, #0
1fff21d4:	b570      	push	{r4, r5, r6, lr}
1fff21d6:	4605      	mov	r5, r0
1fff21d8:	460e      	mov	r6, r1
1fff21da:	4806      	ldr	r0, [pc, #24]	@ (0x1fff21f4)
1fff21dc:	6804      	ldr	r4, [r0, #0]
1fff21de:	e006      	b.n	0x1fff21ee
1fff21e0:	6922      	ldr	r2, [r4, #16]
1fff21e2:	2a00      	cmp	r2, #0
1fff21e4:	d002      	beq.n	0x1fff21ec
1fff21e6:	4631      	mov	r1, r6
1fff21e8:	4628      	mov	r0, r5
1fff21ea:	4790      	blx	r2
1fff21ec:	6824      	ldr	r4, [r4, #0]
1fff21ee:	2c00      	cmp	r4, #0
1fff21f0:	d1f6      	bne.n	0x1fff21e0
1fff21f2:	bd70      	pop	{r4, r5, r6, pc}
1fff21f4:	0028      	movs	r0, r5
1fff21f6:	2000      	movs	r0, #0
1fff21f8:	b4f0      	push	{r4, r5, r6, r7}
1fff21fa:	7803      	ldrb	r3, [r0, #0]
1fff21fc:	079c      	lsls	r4, r3, #30
1fff21fe:	4b17      	ldr	r3, [pc, #92]	@ (0x1fff225c)
1fff2200:	0fa4      	lsrs	r4, r4, #30
1fff2202:	681b      	ldr	r3, [r3, #0]
1fff2204:	2c01      	cmp	r4, #1
1fff2206:	d011      	beq.n	0x1fff222c
1fff2208:	2c02      	cmp	r4, #2
1fff220a:	d021      	beq.n	0x1fff2250
1fff220c:	e022      	b.n	0x1fff2254
1fff220e:	685c      	ldr	r4, [r3, #4]
1fff2210:	2c00      	cmp	r4, #0
1fff2212:	d00a      	beq.n	0x1fff222a
1fff2214:	7945      	ldrb	r5, [r0, #5]
1fff2216:	7906      	ldrb	r6, [r0, #4]
1fff2218:	022d      	lsls	r5, r5, #8
1fff221a:	7f1c      	ldrb	r4, [r3, #28]
1fff221c:	4335      	orrs	r5, r6
1fff221e:	b2ed      	uxtb	r5, r5
1fff2220:	42ac      	cmp	r4, r5
1fff2222:	d102      	bne.n	0x1fff222a
1fff2224:	685b      	ldr	r3, [r3, #4]
1fff2226:	bcf0      	pop	{r4, r5, r6, r7}
1fff2228:	4718      	bx	r3
1fff222a:	681b      	ldr	r3, [r3, #0]
1fff222c:	2b00      	cmp	r3, #0
1fff222e:	d1ee      	bne.n	0x1fff220e
1fff2230:	e010      	b.n	0x1fff2254
1fff2232:	689c      	ldr	r4, [r3, #8]
1fff2234:	2c00      	cmp	r4, #0
1fff2236:	d00a      	beq.n	0x1fff224e
1fff2238:	7945      	ldrb	r5, [r0, #5]
1fff223a:	7906      	ldrb	r6, [r0, #4]
1fff223c:	022d      	lsls	r5, r5, #8
1fff223e:	7f1c      	ldrb	r4, [r3, #28]
1fff2240:	4335      	orrs	r5, r6
1fff2242:	0a2d      	lsrs	r5, r5, #8
1fff2244:	42ac      	cmp	r4, r5
1fff2246:	d102      	bne.n	0x1fff224e
1fff2248:	689b      	ldr	r3, [r3, #8]
1fff224a:	bcf0      	pop	{r4, r5, r6, r7}
1fff224c:	4718      	bx	r3
1fff224e:	681b      	ldr	r3, [r3, #0]
1fff2250:	2b00      	cmp	r3, #0
1fff2252:	d1ee      	bne.n	0x1fff2232
1fff2254:	bcf0      	pop	{r4, r5, r6, r7}
1fff2256:	2000      	movs	r0, #0
1fff2258:	43c0      	mvns	r0, r0
1fff225a:	4770      	bx	lr
1fff225c:	0028      	movs	r0, r5
1fff225e:	2000      	movs	r0, #0
1fff2260:	b510      	push	{r4, lr}
1fff2262:	2240      	movs	r2, #64	@ 0x40
1fff2264:	4902      	ldr	r1, [pc, #8]	@ (0x1fff2270)
1fff2266:	2002      	movs	r0, #2
1fff2268:	f000 f8f2 	bl	0x1fff2450
1fff226c:	bd10      	pop	{r4, pc}
1fff226e:	0000      	movs	r0, r0
1fff2270:	003c      	movs	r4, r7
1fff2272:	2000      	movs	r0, #0
1fff2274:	4902      	ldr	r1, [pc, #8]	@ (0x1fff2280)
1fff2276:	6188      	str	r0, [r1, #24]
1fff2278:	4802      	ldr	r0, [pc, #8]	@ (0x1fff2284)
1fff227a:	2100      	movs	r1, #0
1fff227c:	7781      	strb	r1, [r0, #30]
1fff227e:	4770      	bx	lr
1fff2280:	007c      	lsls	r4, r7, #1
1fff2282:	2000      	movs	r0, #0
1fff2284:	01bc      	lsls	r4, r7, #6
1fff2286:	2000      	movs	r0, #0
1fff2288:	b570      	push	{r4, r5, r6, lr}
1fff228a:	4606      	mov	r6, r0
1fff228c:	0674      	lsls	r4, r6, #25
1fff228e:	0e64      	lsrs	r4, r4, #25
1fff2290:	f7ff ff2a 	bl	0x1fff20e8
1fff2294:	4605      	mov	r5, r0
1fff2296:	4620      	mov	r0, r4
1fff2298:	f7ff ff4c 	bl	0x1fff2134
1fff229c:	0632      	lsls	r2, r6, #24
1fff229e:	21fb      	movs	r1, #251	@ 0xfb
1fff22a0:	4812      	ldr	r0, [pc, #72]	@ (0x1fff22ec)
1fff22a2:	2a00      	cmp	r2, #0
1fff22a4:	db0e      	blt.n	0x1fff22c4
1fff22a6:	2c00      	cmp	r4, #0
1fff22a8:	d008      	beq.n	0x1fff22bc
1fff22aa:	7e41      	ldrb	r1, [r0, #25]
1fff22ac:	229f      	movs	r2, #159	@ 0x9f
1fff22ae:	4011      	ands	r1, r2
1fff22b0:	7641      	strb	r1, [r0, #25]
1fff22b2:	7e41      	ldrb	r1, [r0, #25]
1fff22b4:	2280      	movs	r2, #128	@ 0x80
1fff22b6:	4311      	orrs	r1, r2
1fff22b8:	7641      	strb	r1, [r0, #25]
1fff22ba:	e00d      	b.n	0x1fff22d8
1fff22bc:	7c02      	ldrb	r2, [r0, #16]
1fff22be:	400a      	ands	r2, r1
1fff22c0:	7402      	strb	r2, [r0, #16]
1fff22c2:	e009      	b.n	0x1fff22d8
1fff22c4:	2c00      	cmp	r4, #0
1fff22c6:	d00c      	beq.n	0x1fff22e2
1fff22c8:	7d41      	ldrb	r1, [r0, #21]
1fff22ca:	22cf      	movs	r2, #207	@ 0xcf
1fff22cc:	4011      	ands	r1, r2
1fff22ce:	7541      	strb	r1, [r0, #21]
1fff22d0:	7d41      	ldrb	r1, [r0, #21]
1fff22d2:	2240      	movs	r2, #64	@ 0x40
1fff22d4:	4311      	orrs	r1, r2
1fff22d6:	7541      	strb	r1, [r0, #21]
1fff22d8:	4628      	mov	r0, r5
1fff22da:	f7ff ff2b 	bl	0x1fff2134
1fff22de:	2000      	movs	r0, #0
1fff22e0:	bd70      	pop	{r4, r5, r6, pc}
1fff22e2:	7c02      	ldrb	r2, [r0, #16]
1fff22e4:	400a      	ands	r2, r1
1fff22e6:	7402      	strb	r2, [r0, #16]
1fff22e8:	e7f6      	b.n	0x1fff22d8
1fff22ea:	0000      	movs	r0, r0
1fff22ec:	5c00      	ldrb	r0, [r0, r0]
1fff22ee:	4000      	ands	r0, r0
1fff22f0:	2000      	movs	r0, #0
1fff22f2:	4770      	bx	lr
1fff22f4:	b5fe      	push	{r1, r2, r3, r4, r5, r6, r7, lr}
1fff22f6:	4604      	mov	r4, r0
1fff22f8:	2100      	movs	r1, #0
1fff22fa:	9101      	str	r1, [sp, #4]
1fff22fc:	7820      	ldrb	r0, [r4, #0]
1fff22fe:	0645      	lsls	r5, r0, #25
1fff2300:	0e6d      	lsrs	r5, r5, #25
1fff2302:	2600      	movs	r6, #0
1fff2304:	4f37      	ldr	r7, [pc, #220]	@ (0x1fff23e4)
1fff2306:	2d00      	cmp	r5, #0
1fff2308:	d003      	beq.n	0x1fff2312
1fff230a:	2d07      	cmp	r5, #7
1fff230c:	d90e      	bls.n	0x1fff232c
1fff230e:	1e48      	subs	r0, r1, #1
1fff2310:	bdfe      	pop	{r1, r2, r3, r4, r5, r6, r7, pc}
1fff2312:	4834      	ldr	r0, [pc, #208]	@ (0x1fff23e4)
1fff2314:	2340      	movs	r3, #64	@ 0x40
1fff2316:	30c0      	adds	r0, #192	@ 0xc0
1fff2318:	8103      	strh	r3, [r0, #8]
1fff231a:	7281      	strb	r1, [r0, #10]
1fff231c:	2201      	movs	r2, #1
1fff231e:	7302      	strb	r2, [r0, #12]
1fff2320:	853b      	strh	r3, [r7, #40]	@ 0x28
1fff2322:	38a0      	subs	r0, #160	@ 0xa0
1fff2324:	7281      	strb	r1, [r0, #10]
1fff2326:	7302      	strb	r2, [r0, #12]
1fff2328:	2000      	movs	r0, #0
1fff232a:	bdfe      	pop	{r1, r2, r3, r4, r5, r6, r7, pc}
1fff232c:	f7ff fedc 	bl	0x1fff20e8
1fff2330:	9000      	str	r0, [sp, #0]
1fff2332:	4628      	mov	r0, r5
1fff2334:	f7ff fefe 	bl	0x1fff2134
1fff2338:	7820      	ldrb	r0, [r4, #0]
1fff233a:	0601      	lsls	r1, r0, #24
1fff233c:	482a      	ldr	r0, [pc, #168]	@ (0x1fff23e8)
1fff233e:	d422      	bmi.n	0x1fff2386
1fff2340:	2114      	movs	r1, #20
1fff2342:	434d      	muls	r5, r1
1fff2344:	19e9      	adds	r1, r5, r7
1fff2346:	8862      	ldrh	r2, [r4, #2]
1fff2348:	31c0      	adds	r1, #192	@ 0xc0
1fff234a:	810a      	strh	r2, [r1, #8]
1fff234c:	7862      	ldrb	r2, [r4, #1]
1fff234e:	728a      	strb	r2, [r1, #10]
1fff2350:	2201      	movs	r2, #1
1fff2352:	730a      	strb	r2, [r1, #12]
1fff2354:	7861      	ldrb	r1, [r4, #1]
1fff2356:	2901      	cmp	r1, #1
1fff2358:	d100      	bne.n	0x1fff235c
1fff235a:	2640      	movs	r6, #64	@ 0x40
1fff235c:	4605      	mov	r5, r0
1fff235e:	7606      	strb	r6, [r0, #24]
1fff2360:	7e68      	ldrb	r0, [r5, #25]
1fff2362:	07c0      	lsls	r0, r0, #31
1fff2364:	d002      	beq.n	0x1fff236c
1fff2366:	2090      	movs	r0, #144	@ 0x90
1fff2368:	7668      	strb	r0, [r5, #25]
1fff236a:	e001      	b.n	0x1fff2370
1fff236c:	2080      	movs	r0, #128	@ 0x80
1fff236e:	7668      	strb	r0, [r5, #25]
1fff2370:	8860      	ldrh	r0, [r4, #2]
1fff2372:	a901      	add	r1, sp, #4
1fff2374:	f7ff febe 	bl	0x1fff20f4
1fff2378:	76a8      	strb	r0, [r5, #26]
1fff237a:	6879      	ldr	r1, [r7, #4]
1fff237c:	4668      	mov	r0, sp
1fff237e:	8880      	ldrh	r0, [r0, #4]
1fff2380:	1808      	adds	r0, r1, r0
1fff2382:	6078      	str	r0, [r7, #4]
1fff2384:	e028      	b.n	0x1fff23d8
1fff2386:	4629      	mov	r1, r5
1fff2388:	2314      	movs	r3, #20
1fff238a:	4359      	muls	r1, r3
1fff238c:	8862      	ldrh	r2, [r4, #2]
1fff238e:	19c9      	adds	r1, r1, r7
1fff2390:	850a      	strh	r2, [r1, #40]	@ 0x28
1fff2392:	7862      	ldrb	r2, [r4, #1]
1fff2394:	3120      	adds	r1, #32
1fff2396:	728a      	strb	r2, [r1, #10]
1fff2398:	2201      	movs	r2, #1
1fff239a:	730a      	strb	r2, [r1, #12]
1fff239c:	7a81      	ldrb	r1, [r0, #10]
1fff239e:	40aa      	lsls	r2, r5
1fff23a0:	4311      	orrs	r1, r2
1fff23a2:	7281      	strb	r1, [r0, #10]
1fff23a4:	7861      	ldrb	r1, [r4, #1]
1fff23a6:	2901      	cmp	r1, #1
1fff23a8:	d100      	bne.n	0x1fff23ac
1fff23aa:	2640      	movs	r6, #64	@ 0x40
1fff23ac:	2120      	movs	r1, #32
1fff23ae:	430e      	orrs	r6, r1
1fff23b0:	4605      	mov	r5, r0
1fff23b2:	7506      	strb	r6, [r0, #20]
1fff23b4:	7d68      	ldrb	r0, [r5, #21]
1fff23b6:	0780      	lsls	r0, r0, #30
1fff23b8:	d502      	bpl.n	0x1fff23c0
1fff23ba:	2048      	movs	r0, #72	@ 0x48
1fff23bc:	7568      	strb	r0, [r5, #21]
1fff23be:	e001      	b.n	0x1fff23c4
1fff23c0:	2040      	movs	r0, #64	@ 0x40
1fff23c2:	7568      	strb	r0, [r5, #21]
1fff23c4:	8860      	ldrh	r0, [r4, #2]
1fff23c6:	a901      	add	r1, sp, #4
1fff23c8:	f7ff fe94 	bl	0x1fff20f4
1fff23cc:	75a8      	strb	r0, [r5, #22]
1fff23ce:	6878      	ldr	r0, [r7, #4]
1fff23d0:	4669      	mov	r1, sp
1fff23d2:	8889      	ldrh	r1, [r1, #4]
1fff23d4:	1840      	adds	r0, r0, r1
1fff23d6:	6078      	str	r0, [r7, #4]
1fff23d8:	9800      	ldr	r0, [sp, #0]
1fff23da:	f7ff feab 	bl	0x1fff2134
1fff23de:	2000      	movs	r0, #0
1fff23e0:	bdfe      	pop	{r1, r2, r3, r4, r5, r6, r7, pc}
1fff23e2:	0000      	movs	r0, r0
1fff23e4:	0200      	lsls	r0, r0, #8
1fff23e6:	2000      	movs	r0, #0
1fff23e8:	5c00      	ldrb	r0, [r0, r0]
1fff23ea:	4000      	ands	r0, r0
1fff23ec:	b570      	push	{r4, r5, r6, lr}
1fff23ee:	4605      	mov	r5, r0
1fff23f0:	066c      	lsls	r4, r5, #25
1fff23f2:	0e64      	lsrs	r4, r4, #25
1fff23f4:	f7ff fe78 	bl	0x1fff20e8
1fff23f8:	4606      	mov	r6, r0
1fff23fa:	4620      	mov	r0, r4
1fff23fc:	f7ff fe9a 	bl	0x1fff2134
1fff2400:	062d      	lsls	r5, r5, #24
1fff2402:	2207      	movs	r2, #7
1fff2404:	4b10      	ldr	r3, [pc, #64]	@ (0x1fff2448)
1fff2406:	2160      	movs	r1, #96	@ 0x60
1fff2408:	4810      	ldr	r0, [pc, #64]	@ (0x1fff244c)
1fff240a:	2d00      	cmp	r5, #0
1fff240c:	db0b      	blt.n	0x1fff2426
1fff240e:	2c00      	cmp	r4, #0
1fff2410:	d004      	beq.n	0x1fff241c
1fff2412:	7e41      	ldrb	r1, [r0, #25]
1fff2414:	2220      	movs	r2, #32
1fff2416:	4311      	orrs	r1, r2
1fff2418:	7641      	strb	r1, [r0, #25]
1fff241a:	e00a      	b.n	0x1fff2432
1fff241c:	701a      	strb	r2, [r3, #0]
1fff241e:	7c02      	ldrb	r2, [r0, #16]
1fff2420:	430a      	orrs	r2, r1
1fff2422:	7402      	strb	r2, [r0, #16]
1fff2424:	e005      	b.n	0x1fff2432
1fff2426:	2c00      	cmp	r4, #0
1fff2428:	d008      	beq.n	0x1fff243c
1fff242a:	7d01      	ldrb	r1, [r0, #20]
1fff242c:	2210      	movs	r2, #16
1fff242e:	4311      	orrs	r1, r2
1fff2430:	7501      	strb	r1, [r0, #20]
1fff2432:	4630      	mov	r0, r6
1fff2434:	f7ff fe7e 	bl	0x1fff2134
1fff2438:	2000      	movs	r0, #0
1fff243a:	bd70      	pop	{r4, r5, r6, pc}
1fff243c:	701a      	strb	r2, [r3, #0]
1fff243e:	7c02      	ldrb	r2, [r0, #16]
1fff2440:	430a      	orrs	r2, r1
1fff2442:	7402      	strb	r2, [r0, #16]
1fff2444:	e7f5      	b.n	0x1fff2432
1fff2446:	0000      	movs	r0, r0
1fff2448:	0038      	movs	r0, r7
1fff244a:	2000      	movs	r0, #0
1fff244c:	5c00      	ldrb	r0, [r0, r0]
1fff244e:	4000      	ands	r0, r0
1fff2450:	b5f8      	push	{r3, r4, r5, r6, r7, lr}
1fff2452:	460f      	mov	r7, r1
1fff2454:	4616      	mov	r6, r2
1fff2456:	0644      	lsls	r4, r0, #25
1fff2458:	0e64      	lsrs	r4, r4, #25
1fff245a:	2f00      	cmp	r7, #0
1fff245c:	d103      	bne.n	0x1fff2466
1fff245e:	2e00      	cmp	r6, #0
1fff2460:	d001      	beq.n	0x1fff2466
1fff2462:	1e48      	subs	r0, r1, #1
1fff2464:	bdf8      	pop	{r3, r4, r5, r6, r7, pc}
1fff2466:	4620      	mov	r0, r4
1fff2468:	2114      	movs	r1, #20
1fff246a:	4348      	muls	r0, r1
1fff246c:	4917      	ldr	r1, [pc, #92]	@ (0x1fff24cc)
1fff246e:	1845      	adds	r5, r0, r1
1fff2470:	20cc      	movs	r0, #204	@ 0xcc
1fff2472:	5d40      	ldrb	r0, [r0, r5]
1fff2474:	2800      	cmp	r0, #0
1fff2476:	d01a      	beq.n	0x1fff24ae
1fff2478:	f7ff fe36 	bl	0x1fff20e8
1fff247c:	9000      	str	r0, [sp, #0]
1fff247e:	4620      	mov	r0, r4
1fff2480:	f7ff fe58 	bl	0x1fff2134
1fff2484:	3580      	adds	r5, #128	@ 0x80
1fff2486:	652f      	str	r7, [r5, #80]	@ 0x50
1fff2488:	656e      	str	r6, [r5, #84]	@ 0x54
1fff248a:	2100      	movs	r1, #0
1fff248c:	65a9      	str	r1, [r5, #88]	@ 0x58
1fff248e:	4810      	ldr	r0, [pc, #64]	@ (0x1fff24d0)
1fff2490:	2e00      	cmp	r6, #0
1fff2492:	d00f      	beq.n	0x1fff24b4
1fff2494:	2c00      	cmp	r4, #0
1fff2496:	d015      	beq.n	0x1fff24c4
1fff2498:	490e      	ldr	r1, [pc, #56]	@ (0x1fff24d4)
1fff249a:	7a48      	ldrb	r0, [r1, #9]
1fff249c:	2201      	movs	r2, #1
1fff249e:	40a2      	lsls	r2, r4
1fff24a0:	4310      	orrs	r0, r2
1fff24a2:	7248      	strb	r0, [r1, #9]
1fff24a4:	9800      	ldr	r0, [sp, #0]
1fff24a6:	f7ff fe45 	bl	0x1fff2134
1fff24aa:	2000      	movs	r0, #0
1fff24ac:	bdf8      	pop	{r3, r4, r5, r6, r7, pc}
1fff24ae:	2001      	movs	r0, #1
1fff24b0:	43c0      	mvns	r0, r0
1fff24b2:	bdf8      	pop	{r3, r4, r5, r6, r7, pc}
1fff24b4:	2c00      	cmp	r4, #0
1fff24b6:	d100      	bne.n	0x1fff24ba
1fff24b8:	7001      	strb	r1, [r0, #0]
1fff24ba:	9800      	ldr	r0, [sp, #0]
1fff24bc:	f7ff fe3a 	bl	0x1fff2134
1fff24c0:	2000      	movs	r0, #0
1fff24c2:	bdf8      	pop	{r3, r4, r5, r6, r7, pc}
1fff24c4:	2103      	movs	r1, #3
1fff24c6:	7001      	strb	r1, [r0, #0]
1fff24c8:	e7ec      	b.n	0x1fff24a4
1fff24ca:	0000      	movs	r0, r0
1fff24cc:	0200      	lsls	r0, r0, #8
1fff24ce:	2000      	movs	r0, #0
1fff24d0:	0038      	movs	r0, r7
1fff24d2:	2000      	movs	r0, #0
1fff24d4:	5c00      	ldrb	r0, [r0, r0]
1fff24d6:	4000      	ands	r0, r0
1fff24d8:	b5f7      	push	{r0, r1, r2, r4, r5, r6, r7, lr}
1fff24da:	b082      	sub	sp, #8
1fff24dc:	4614      	mov	r4, r2
1fff24de:	0647      	lsls	r7, r0, #25
1fff24e0:	0e7f      	lsrs	r7, r7, #25
1fff24e2:	9803      	ldr	r0, [sp, #12]
1fff24e4:	2800      	cmp	r0, #0
1fff24e6:	d104      	bne.n	0x1fff24f2
1fff24e8:	2c00      	cmp	r4, #0
1fff24ea:	d002      	beq.n	0x1fff24f2
1fff24ec:	1e40      	subs	r0, r0, #1
1fff24ee:	b005      	add	sp, #20
1fff24f0:	bdf0      	pop	{r4, r5, r6, r7, pc}
1fff24f2:	2014      	movs	r0, #20
1fff24f4:	492e      	ldr	r1, [pc, #184]	@ (0x1fff25b0)
1fff24f6:	4378      	muls	r0, r7
1fff24f8:	1845      	adds	r5, r0, r1
1fff24fa:	202c      	movs	r0, #44	@ 0x2c
1fff24fc:	5d40      	ldrb	r0, [r0, r5]
1fff24fe:	2800      	cmp	r0, #0
1fff2500:	d00f      	beq.n	0x1fff2522
1fff2502:	f7ff fdf1 	bl	0x1fff20e8
1fff2506:	9001      	str	r0, [sp, #4]
1fff2508:	4638      	mov	r0, r7
1fff250a:	f7ff fe13 	bl	0x1fff2134
1fff250e:	4e29      	ldr	r6, [pc, #164]	@ (0x1fff25b4)
1fff2510:	7d70      	ldrb	r0, [r6, #21]
1fff2512:	07c0      	lsls	r0, r0, #31
1fff2514:	d008      	beq.n	0x1fff2528
1fff2516:	9801      	ldr	r0, [sp, #4]
1fff2518:	f7ff fe0c 	bl	0x1fff2134
1fff251c:	2002      	movs	r0, #2
1fff251e:	43c0      	mvns	r0, r0
1fff2520:	e7e5      	b.n	0x1fff24ee
1fff2522:	2001      	movs	r0, #1
1fff2524:	43c0      	mvns	r0, r0
1fff2526:	e7e2      	b.n	0x1fff24ee
1fff2528:	4921      	ldr	r1, [pc, #132]	@ (0x1fff25b0)
1fff252a:	9803      	ldr	r0, [sp, #12]
1fff252c:	6328      	str	r0, [r5, #48]	@ 0x30
1fff252e:	636c      	str	r4, [r5, #52]	@ 0x34
1fff2530:	2000      	movs	r0, #0
1fff2532:	63a8      	str	r0, [r5, #56]	@ 0x38
1fff2534:	2c00      	cmp	r4, #0
1fff2536:	d011      	beq.n	0x1fff255c
1fff2538:	8d28      	ldrh	r0, [r5, #40]	@ 0x28
1fff253a:	42a0      	cmp	r0, r4
1fff253c:	d800      	bhi.n	0x1fff2540
1fff253e:	4604      	mov	r4, r0
1fff2540:	b2a2      	uxth	r2, r4
1fff2542:	4638      	mov	r0, r7
1fff2544:	9903      	ldr	r1, [sp, #12]
1fff2546:	f7ff fdfb 	bl	0x1fff2140
1fff254a:	2f00      	cmp	r7, #0
1fff254c:	d023      	beq.n	0x1fff2596
1fff254e:	2001      	movs	r0, #1
1fff2550:	7570      	strb	r0, [r6, #21]
1fff2552:	9801      	ldr	r0, [sp, #4]
1fff2554:	f7ff fdee 	bl	0x1fff2134
1fff2558:	2000      	movs	r0, #0
1fff255a:	e7c8      	b.n	0x1fff24ee
1fff255c:	2f00      	cmp	r7, #0
1fff255e:	d006      	beq.n	0x1fff256e
1fff2560:	2001      	movs	r0, #1
1fff2562:	7570      	strb	r0, [r6, #21]
1fff2564:	9801      	ldr	r0, [sp, #4]
1fff2566:	f7ff fde5 	bl	0x1fff2134
1fff256a:	2000      	movs	r0, #0
1fff256c:	e7bf      	b.n	0x1fff24ee
1fff256e:	8cc8      	ldrh	r0, [r1, #38]	@ 0x26
1fff2570:	2800      	cmp	r0, #0
1fff2572:	d009      	beq.n	0x1fff2588
1fff2574:	4810      	ldr	r0, [pc, #64]	@ (0x1fff25b8)
1fff2576:	2106      	movs	r1, #6
1fff2578:	7001      	strb	r1, [r0, #0]
1fff257a:	480f      	ldr	r0, [pc, #60]	@ (0x1fff25b8)
1fff257c:	7800      	ldrb	r0, [r0, #0]
1fff257e:	2801      	cmp	r0, #1
1fff2580:	d006      	beq.n	0x1fff2590
1fff2582:	2002      	movs	r0, #2
1fff2584:	7430      	strb	r0, [r6, #16]
1fff2586:	e7ed      	b.n	0x1fff2564
1fff2588:	480b      	ldr	r0, [pc, #44]	@ (0x1fff25b8)
1fff258a:	2104      	movs	r1, #4
1fff258c:	7001      	strb	r1, [r0, #0]
1fff258e:	e7f4      	b.n	0x1fff257a
1fff2590:	200a      	movs	r0, #10
1fff2592:	7430      	strb	r0, [r6, #16]
1fff2594:	e7e6      	b.n	0x1fff2564
1fff2596:	4808      	ldr	r0, [pc, #32]	@ (0x1fff25b8)
1fff2598:	2101      	movs	r1, #1
1fff259a:	7001      	strb	r1, [r0, #0]
1fff259c:	4804      	ldr	r0, [pc, #16]	@ (0x1fff25b0)
1fff259e:	8d00      	ldrh	r0, [r0, #40]	@ 0x28
1fff25a0:	42a0      	cmp	r0, r4
1fff25a2:	d902      	bls.n	0x1fff25aa
1fff25a4:	200a      	movs	r0, #10
1fff25a6:	7430      	strb	r0, [r6, #16]
1fff25a8:	e7d3      	b.n	0x1fff2552
1fff25aa:	2002      	movs	r0, #2
1fff25ac:	7430      	strb	r0, [r6, #16]
1fff25ae:	e7d0      	b.n	0x1fff2552
1fff25b0:	0200      	lsls	r0, r0, #8
1fff25b2:	2000      	movs	r0, #0
1fff25b4:	5c00      	ldrb	r0, [r0, r0]
1fff25b6:	4000      	ands	r0, r0
1fff25b8:	0038      	movs	r0, r7
1fff25ba:	2000      	movs	r0, #0
1fff25bc:	b5f8      	push	{r3, r4, r5, r6, r7, lr}
1fff25be:	4c27      	ldr	r4, [pc, #156]	@ (0x1fff265c)
1fff25c0:	4601      	mov	r1, r0
1fff25c2:	2208      	movs	r2, #8
1fff25c4:	4620      	mov	r0, r4
1fff25c6:	f7fd fda9 	bl	0x1fff011c
1fff25ca:	88e2      	ldrh	r2, [r4, #6]
1fff25cc:	27ff      	movs	r7, #255	@ 0xff
1fff25ce:	3701      	adds	r7, #1
1fff25d0:	42ba      	cmp	r2, r7
1fff25d2:	d906      	bls.n	0x1fff25e2
1fff25d4:	7820      	ldrb	r0, [r4, #0]
1fff25d6:	0600      	lsls	r0, r0, #24
1fff25d8:	d403      	bmi.n	0x1fff25e2
1fff25da:	2080      	movs	r0, #128	@ 0x80
1fff25dc:	f7ff ff06 	bl	0x1fff23ec
1fff25e0:	bdf8      	pop	{r3, r4, r5, r6, r7, pc}
1fff25e2:	4d1e      	ldr	r5, [pc, #120]	@ (0x1fff265c)
1fff25e4:	4e1d      	ldr	r6, [pc, #116]	@ (0x1fff265c)
1fff25e6:	351c      	adds	r5, #28
1fff25e8:	60b5      	str	r5, [r6, #8]
1fff25ea:	60f2      	str	r2, [r6, #12]
1fff25ec:	6132      	str	r2, [r6, #16]
1fff25ee:	2000      	movs	r0, #0
1fff25f0:	7530      	strb	r0, [r6, #20]
1fff25f2:	2a00      	cmp	r2, #0
1fff25f4:	d007      	beq.n	0x1fff2606
1fff25f6:	7820      	ldrb	r0, [r4, #0]
1fff25f8:	0600      	lsls	r0, r0, #24
1fff25fa:	d404      	bmi.n	0x1fff2606
1fff25fc:	4629      	mov	r1, r5
1fff25fe:	2000      	movs	r0, #0
1fff2600:	f7ff ff26 	bl	0x1fff2450
1fff2604:	bdf8      	pop	{r3, r4, r5, r6, r7, pc}
1fff2606:	4a15      	ldr	r2, [pc, #84]	@ (0x1fff265c)
1fff2608:	4620      	mov	r0, r4
1fff260a:	3210      	adds	r2, #16
1fff260c:	4611      	mov	r1, r2
1fff260e:	3908      	subs	r1, #8
1fff2610:	f000 f9c6 	bl	0x1fff29a0
1fff2614:	2800      	cmp	r0, #0
1fff2616:	d01c      	beq.n	0x1fff2652
1fff2618:	88e0      	ldrh	r0, [r4, #6]
1fff261a:	6932      	ldr	r2, [r6, #16]
1fff261c:	4282      	cmp	r2, r0
1fff261e:	d300      	bcc.n	0x1fff2622
1fff2620:	4602      	mov	r2, r0
1fff2622:	60f2      	str	r2, [r6, #12]
1fff2624:	68b1      	ldr	r1, [r6, #8]
1fff2626:	0788      	lsls	r0, r1, #30
1fff2628:	d005      	beq.n	0x1fff2636
1fff262a:	42ba      	cmp	r2, r7
1fff262c:	d8ea      	bhi.n	0x1fff2604
1fff262e:	4628      	mov	r0, r5
1fff2630:	f7fd fd74 	bl	0x1fff011c
1fff2634:	60b5      	str	r5, [r6, #8]
1fff2636:	2080      	movs	r0, #128	@ 0x80
1fff2638:	68f2      	ldr	r2, [r6, #12]
1fff263a:	68b1      	ldr	r1, [r6, #8]
1fff263c:	f7ff ff4c 	bl	0x1fff24d8
1fff2640:	88e1      	ldrh	r1, [r4, #6]
1fff2642:	6930      	ldr	r0, [r6, #16]
1fff2644:	4281      	cmp	r1, r0
1fff2646:	d9dd      	bls.n	0x1fff2604
1fff2648:	0680      	lsls	r0, r0, #26
1fff264a:	d1db      	bne.n	0x1fff2604
1fff264c:	2001      	movs	r0, #1
1fff264e:	7530      	strb	r0, [r6, #20]
1fff2650:	bdf8      	pop	{r3, r4, r5, r6, r7, pc}
1fff2652:	2080      	movs	r0, #128	@ 0x80
1fff2654:	f7ff feca 	bl	0x1fff23ec
1fff2658:	bdf8      	pop	{r3, r4, r5, r6, r7, pc}
1fff265a:	0000      	movs	r0, r0
1fff265c:	007c      	lsls	r4, r7, #1
1fff265e:	2000      	movs	r0, #0
1fff2660:	b510      	push	{r4, lr}
1fff2662:	4c19      	ldr	r4, [pc, #100]	@ (0x1fff26c8)
1fff2664:	2880      	cmp	r0, #128	@ 0x80
1fff2666:	d009      	beq.n	0x1fff267c
1fff2668:	0642      	lsls	r2, r0, #25
1fff266a:	0dd2      	lsrs	r2, r2, #23
1fff266c:	1912      	adds	r2, r2, r4
1fff266e:	32ff      	adds	r2, #255	@ 0xff
1fff2670:	3201      	adds	r2, #1
1fff2672:	69d2      	ldr	r2, [r2, #28]
1fff2674:	2a00      	cmp	r2, #0
1fff2676:	d000      	beq.n	0x1fff267a
1fff2678:	4790      	blx	r2
1fff267a:	bd10      	pop	{r4, pc}
1fff267c:	4812      	ldr	r0, [pc, #72]	@ (0x1fff26c8)
1fff267e:	68a2      	ldr	r2, [r4, #8]
1fff2680:	1853      	adds	r3, r2, r1
1fff2682:	60a3      	str	r3, [r4, #8]
1fff2684:	68e2      	ldr	r2, [r4, #12]
1fff2686:	1a52      	subs	r2, r2, r1
1fff2688:	60e2      	str	r2, [r4, #12]
1fff268a:	2a00      	cmp	r2, #0
1fff268c:	d004      	beq.n	0x1fff2698
1fff268e:	4619      	mov	r1, r3
1fff2690:	2080      	movs	r0, #128	@ 0x80
1fff2692:	f7ff ff21 	bl	0x1fff24d8
1fff2696:	bd10      	pop	{r4, pc}
1fff2698:	7d21      	ldrb	r1, [r4, #20]
1fff269a:	2901      	cmp	r1, #1
1fff269c:	d00b      	beq.n	0x1fff26b6
1fff269e:	88c1      	ldrh	r1, [r0, #6]
1fff26a0:	2900      	cmp	r1, #0
1fff26a2:	d0f8      	beq.n	0x1fff2696
1fff26a4:	7800      	ldrb	r0, [r0, #0]
1fff26a6:	09c0      	lsrs	r0, r0, #7
1fff26a8:	d0f5      	beq.n	0x1fff2696
1fff26aa:	2200      	movs	r2, #0
1fff26ac:	4611      	mov	r1, r2
1fff26ae:	4610      	mov	r0, r2
1fff26b0:	f7ff fece 	bl	0x1fff2450
1fff26b4:	bd10      	pop	{r4, pc}
1fff26b6:	2000      	movs	r0, #0
1fff26b8:	7520      	strb	r0, [r4, #20]
1fff26ba:	2200      	movs	r2, #0
1fff26bc:	4611      	mov	r1, r2
1fff26be:	2080      	movs	r0, #128	@ 0x80
1fff26c0:	f7ff ff0a 	bl	0x1fff24d8
1fff26c4:	bd10      	pop	{r4, pc}
1fff26c6:	0000      	movs	r0, r0
1fff26c8:	007c      	lsls	r4, r7, #1
1fff26ca:	2000      	movs	r0, #0
1fff26cc:	b510      	push	{r4, lr}
1fff26ce:	4c18      	ldr	r4, [pc, #96]	@ (0x1fff2730)
1fff26d0:	2800      	cmp	r0, #0
1fff26d2:	d009      	beq.n	0x1fff26e8
1fff26d4:	0642      	lsls	r2, r0, #25
1fff26d6:	0dd2      	lsrs	r2, r2, #23
1fff26d8:	1912      	adds	r2, r2, r4
1fff26da:	32ff      	adds	r2, #255	@ 0xff
1fff26dc:	3201      	adds	r2, #1
1fff26de:	6bd2      	ldr	r2, [r2, #60]	@ 0x3c
1fff26e0:	2a00      	cmp	r2, #0
1fff26e2:	d000      	beq.n	0x1fff26e6
1fff26e4:	4790      	blx	r2
1fff26e6:	bd10      	pop	{r4, pc}
1fff26e8:	4811      	ldr	r0, [pc, #68]	@ (0x1fff2730)
1fff26ea:	2900      	cmp	r1, #0
1fff26ec:	d0fb      	beq.n	0x1fff26e6
1fff26ee:	68a2      	ldr	r2, [r4, #8]
1fff26f0:	1853      	adds	r3, r2, r1
1fff26f2:	60a3      	str	r3, [r4, #8]
1fff26f4:	68e2      	ldr	r2, [r4, #12]
1fff26f6:	1a52      	subs	r2, r2, r1
1fff26f8:	60e2      	str	r2, [r4, #12]
1fff26fa:	2a00      	cmp	r2, #0
1fff26fc:	d004      	beq.n	0x1fff2708
1fff26fe:	4619      	mov	r1, r3
1fff2700:	2000      	movs	r0, #0
1fff2702:	f7ff fea5 	bl	0x1fff2450
1fff2706:	bd10      	pop	{r4, pc}
1fff2708:	4909      	ldr	r1, [pc, #36]	@ (0x1fff2730)
1fff270a:	311c      	adds	r1, #28
1fff270c:	60a1      	str	r1, [r4, #8]
1fff270e:	460a      	mov	r2, r1
1fff2710:	3a0c      	subs	r2, #12
1fff2712:	3914      	subs	r1, #20
1fff2714:	f000 f944 	bl	0x1fff29a0
1fff2718:	2800      	cmp	r0, #0
1fff271a:	d005      	beq.n	0x1fff2728
1fff271c:	2200      	movs	r2, #0
1fff271e:	4611      	mov	r1, r2
1fff2720:	2080      	movs	r0, #128	@ 0x80
1fff2722:	f7ff fed9 	bl	0x1fff24d8
1fff2726:	bd10      	pop	{r4, pc}
1fff2728:	2080      	movs	r0, #128	@ 0x80
1fff272a:	f7ff fe5f 	bl	0x1fff23ec
1fff272e:	bd10      	pop	{r4, pc}
1fff2730:	007c      	lsls	r4, r7, #1
1fff2732:	2000      	movs	r0, #0
1fff2734:	b538      	push	{r3, r4, r5, lr}
1fff2736:	2000      	movs	r0, #0
1fff2738:	f000 f8aa 	bl	0x1fff2890
1fff273c:	480b      	ldr	r0, [pc, #44]	@ (0x1fff276c)
1fff273e:	2400      	movs	r4, #0
1fff2740:	7704      	strb	r4, [r0, #28]
1fff2742:	7744      	strb	r4, [r0, #29]
1fff2744:	2040      	movs	r0, #64	@ 0x40
1fff2746:	4669      	mov	r1, sp
1fff2748:	8048      	strh	r0, [r1, #2]
1fff274a:	704c      	strb	r4, [r1, #1]
1fff274c:	2080      	movs	r0, #128	@ 0x80
1fff274e:	7008      	strb	r0, [r1, #0]
1fff2750:	4668      	mov	r0, sp
1fff2752:	f7ff fdcf 	bl	0x1fff22f4
1fff2756:	4669      	mov	r1, sp
1fff2758:	700c      	strb	r4, [r1, #0]
1fff275a:	4668      	mov	r0, sp
1fff275c:	f7ff fdca 	bl	0x1fff22f4
1fff2760:	2100      	movs	r1, #0
1fff2762:	2001      	movs	r0, #1
1fff2764:	f7ff fd36 	bl	0x1fff21d4
1fff2768:	bd38      	pop	{r3, r4, r5, pc}
1fff276a:	0000      	movs	r0, r0
1fff276c:	01bc      	lsls	r4, r7, #6
1fff276e:	2000      	movs	r0, #0
1fff2770:	b5f0      	push	{r4, r5, r6, r7, lr}
1fff2772:	4603      	mov	r3, r0
1fff2774:	468c      	mov	ip, r1
1fff2776:	2500      	movs	r5, #0
1fff2778:	2000      	movs	r0, #0
1fff277a:	0a1c      	lsrs	r4, r3, #8
1fff277c:	b2de      	uxtb	r6, r3
1fff277e:	4923      	ldr	r1, [pc, #140]	@ (0x1fff280c)
1fff2780:	2c03      	cmp	r4, #3
1fff2782:	d101      	bne.n	0x1fff2788
1fff2784:	2eee      	cmp	r6, #238	@ 0xee
1fff2786:	d008      	beq.n	0x1fff279a
1fff2788:	2c0f      	cmp	r4, #15
1fff278a:	d012      	beq.n	0x1fff27b2
1fff278c:	2c04      	cmp	r4, #4
1fff278e:	d002      	beq.n	0x1fff2796
1fff2790:	2c05      	cmp	r4, #5
1fff2792:	d000      	beq.n	0x1fff2796
1fff2794:	d919      	bls.n	0x1fff27ca
1fff2796:	2000      	movs	r0, #0
1fff2798:	bdf0      	pop	{r4, r5, r6, r7, pc}
1fff279a:	6848      	ldr	r0, [r1, #4]
1fff279c:	2800      	cmp	r0, #0
1fff279e:	d006      	beq.n	0x1fff27ae
1fff27a0:	4661      	mov	r1, ip
1fff27a2:	6803      	ldr	r3, [r0, #0]
1fff27a4:	600b      	str	r3, [r1, #0]
1fff27a6:	7900      	ldrb	r0, [r0, #4]
1fff27a8:	6010      	str	r0, [r2, #0]
1fff27aa:	2001      	movs	r0, #1
1fff27ac:	bdf0      	pop	{r4, r5, r6, r7, pc}
1fff27ae:	2000      	movs	r0, #0
1fff27b0:	bdf0      	pop	{r4, r5, r6, r7, pc}
1fff27b2:	68c8      	ldr	r0, [r1, #12]
1fff27b4:	2800      	cmp	r0, #0
1fff27b6:	d006      	beq.n	0x1fff27c6
1fff27b8:	4661      	mov	r1, ip
1fff27ba:	6803      	ldr	r3, [r0, #0]
1fff27bc:	600b      	str	r3, [r1, #0]
1fff27be:	6840      	ldr	r0, [r0, #4]
1fff27c0:	6010      	str	r0, [r2, #0]
1fff27c2:	2001      	movs	r0, #1
1fff27c4:	bdf0      	pop	{r4, r5, r6, r7, pc}
1fff27c6:	2000      	movs	r0, #0
1fff27c8:	bdf0      	pop	{r4, r5, r6, r7, pc}
1fff27ca:	4911      	ldr	r1, [pc, #68]	@ (0x1fff2810)
1fff27cc:	698b      	ldr	r3, [r1, #24]
1fff27ce:	e008      	b.n	0x1fff27e2
1fff27d0:	7859      	ldrb	r1, [r3, #1]
1fff27d2:	42a1      	cmp	r1, r4
1fff27d4:	d104      	bne.n	0x1fff27e0
1fff27d6:	42b5      	cmp	r5, r6
1fff27d8:	d101      	bne.n	0x1fff27de
1fff27da:	2001      	movs	r0, #1
1fff27dc:	e004      	b.n	0x1fff27e8
1fff27de:	1c6d      	adds	r5, r5, #1
1fff27e0:	18fb      	adds	r3, r7, r3
1fff27e2:	781f      	ldrb	r7, [r3, #0]
1fff27e4:	2f00      	cmp	r7, #0
1fff27e6:	d1f3      	bne.n	0x1fff27d0
1fff27e8:	2800      	cmp	r0, #0
1fff27ea:	d0ed      	beq.n	0x1fff27c8
1fff27ec:	4661      	mov	r1, ip
1fff27ee:	600b      	str	r3, [r1, #0]
1fff27f0:	2c02      	cmp	r4, #2
1fff27f2:	d004      	beq.n	0x1fff27fe
1fff27f4:	2c07      	cmp	r4, #7
1fff27f6:	d002      	beq.n	0x1fff27fe
1fff27f8:	7819      	ldrb	r1, [r3, #0]
1fff27fa:	6011      	str	r1, [r2, #0]
1fff27fc:	bdf0      	pop	{r4, r5, r6, r7, pc}
1fff27fe:	7899      	ldrb	r1, [r3, #2]
1fff2800:	78db      	ldrb	r3, [r3, #3]
1fff2802:	021b      	lsls	r3, r3, #8
1fff2804:	4319      	orrs	r1, r3
1fff2806:	6011      	str	r1, [r2, #0]
1fff2808:	bdf0      	pop	{r4, r5, r6, r7, pc}
1fff280a:	0000      	movs	r0, r0
1fff280c:	0028      	movs	r0, r5
1fff280e:	2000      	movs	r0, #0
1fff2810:	007c      	lsls	r4, r7, #1
1fff2812:	2000      	movs	r0, #0
1fff2814:	4901      	ldr	r1, [pc, #4]	@ (0x1fff281c)
1fff2816:	2000      	movs	r0, #0
1fff2818:	7048      	strb	r0, [r1, #1]
1fff281a:	4770      	bx	lr
1fff281c:	0004      	movs	r4, r0
1fff281e:	2000      	movs	r0, #0
1fff2820:	b510      	push	{r4, lr}
1fff2822:	4904      	ldr	r1, [pc, #16]	@ (0x1fff2834)
1fff2824:	2001      	movs	r0, #1
1fff2826:	7008      	strb	r0, [r1, #0]
1fff2828:	2240      	movs	r2, #64	@ 0x40
1fff282a:	4903      	ldr	r1, [pc, #12]	@ (0x1fff2838)
1fff282c:	2002      	movs	r0, #2
1fff282e:	f7ff fe0f 	bl	0x1fff2450
1fff2832:	bd10      	pop	{r4, pc}
1fff2834:	0004      	movs	r4, r0
1fff2836:	2000      	movs	r0, #0
1fff2838:	003c      	movs	r4, r7
1fff283a:	2000      	movs	r0, #0
1fff283c:	4b04      	ldr	r3, [pc, #16]	@ (0x1fff2850)
1fff283e:	6043      	str	r3, [r0, #4]
1fff2840:	2300      	movs	r3, #0
1fff2842:	6083      	str	r3, [r0, #8]
1fff2844:	60c3      	str	r3, [r0, #12]
1fff2846:	6103      	str	r3, [r0, #16]
1fff2848:	6141      	str	r1, [r0, #20]
1fff284a:	6182      	str	r2, [r0, #24]
1fff284c:	4770      	bx	lr
1fff284e:	0000      	movs	r0, r0
1fff2850:	1e9d      	subs	r5, r3, #2
1fff2852:	1fff      	subs	r7, r7, #7
1fff2854:	b510      	push	{r4, lr}
1fff2856:	f7ff fc83 	bl	0x1fff2160
1fff285a:	bd10      	pop	{r4, pc}
1fff285c:	4770      	bx	lr
1fff285e:	b508      	push	{r3, lr}
1fff2860:	7881      	ldrb	r1, [r0, #2]
1fff2862:	466b      	mov	r3, sp
1fff2864:	7019      	strb	r1, [r3, #0]
1fff2866:	7942      	ldrb	r2, [r0, #5]
1fff2868:	7903      	ldrb	r3, [r0, #4]
1fff286a:	0212      	lsls	r2, r2, #8
1fff286c:	431a      	orrs	r2, r3
1fff286e:	0552      	lsls	r2, r2, #21
1fff2870:	0d52      	lsrs	r2, r2, #21
1fff2872:	466b      	mov	r3, sp
1fff2874:	805a      	strh	r2, [r3, #2]
1fff2876:	78c0      	ldrb	r0, [r0, #3]
1fff2878:	0780      	lsls	r0, r0, #30
1fff287a:	0f80      	lsrs	r0, r0, #30
1fff287c:	7058      	strb	r0, [r3, #1]
1fff287e:	4608      	mov	r0, r1
1fff2880:	f7ff fd36 	bl	0x1fff22f0
1fff2884:	2800      	cmp	r0, #0
1fff2886:	d001      	beq.n	0x1fff288c
1fff2888:	2000      	movs	r0, #0
1fff288a:	bd08      	pop	{r3, pc}
1fff288c:	2001      	movs	r0, #1
1fff288e:	bd08      	pop	{r3, pc}
1fff2890:	2800      	cmp	r0, #0
1fff2892:	d102      	bne.n	0x1fff289a
1fff2894:	4a03      	ldr	r2, [pc, #12]	@ (0x1fff28a4)
1fff2896:	2100      	movs	r1, #0
1fff2898:	7011      	strb	r1, [r2, #0]
1fff289a:	4903      	ldr	r1, [pc, #12]	@ (0x1fff28a8)
1fff289c:	7008      	strb	r0, [r1, #0]
1fff289e:	2000      	movs	r0, #0
1fff28a0:	4770      	bx	lr
1fff28a2:	0000      	movs	r0, r0
1fff28a4:	5c00      	ldrb	r0, [r0, r0]
1fff28a6:	4000      	ands	r0, r0
1fff28a8:	0200      	lsls	r0, r0, #8
1fff28aa:	2000      	movs	r0, #0
1fff28ac:	b5f3      	push	{r0, r1, r4, r5, r6, r7, lr}
1fff28ae:	b081      	sub	sp, #4
1fff28b0:	4607      	mov	r7, r0
1fff28b2:	4812      	ldr	r0, [pc, #72]	@ (0x1fff28fc)
1fff28b4:	6984      	ldr	r4, [r0, #24]
1fff28b6:	26ff      	movs	r6, #255	@ 0xff
1fff28b8:	25ff      	movs	r5, #255	@ 0xff
1fff28ba:	2100      	movs	r1, #0
1fff28bc:	e019      	b.n	0x1fff28f2
1fff28be:	7860      	ldrb	r0, [r4, #1]
1fff28c0:	2802      	cmp	r0, #2
1fff28c2:	d004      	beq.n	0x1fff28ce
1fff28c4:	2804      	cmp	r0, #4
1fff28c6:	d007      	beq.n	0x1fff28d8
1fff28c8:	2805      	cmp	r0, #5
1fff28ca:	d110      	bne.n	0x1fff28ee
1fff28cc:	e006      	b.n	0x1fff28dc
1fff28ce:	7965      	ldrb	r5, [r4, #5]
1fff28d0:	42bd      	cmp	r5, r7
1fff28d2:	d10c      	bne.n	0x1fff28ee
1fff28d4:	2101      	movs	r1, #1
1fff28d6:	e00a      	b.n	0x1fff28ee
1fff28d8:	78e6      	ldrb	r6, [r4, #3]
1fff28da:	e008      	b.n	0x1fff28ee
1fff28dc:	42bd      	cmp	r5, r7
1fff28de:	d106      	bne.n	0x1fff28ee
1fff28e0:	9802      	ldr	r0, [sp, #8]
1fff28e2:	4286      	cmp	r6, r0
1fff28e4:	d103      	bne.n	0x1fff28ee
1fff28e6:	4620      	mov	r0, r4
1fff28e8:	f000 f80a 	bl	0x1fff2900
1fff28ec:	4601      	mov	r1, r0
1fff28ee:	7820      	ldrb	r0, [r4, #0]
1fff28f0:	1904      	adds	r4, r0, r4
1fff28f2:	7820      	ldrb	r0, [r4, #0]
1fff28f4:	2800      	cmp	r0, #0
1fff28f6:	d1e2      	bne.n	0x1fff28be
1fff28f8:	4608      	mov	r0, r1
1fff28fa:	bdfe      	pop	{r1, r2, r3, r4, r5, r6, r7, pc}
1fff28fc:	007c      	lsls	r4, r7, #1
1fff28fe:	2000      	movs	r0, #0
1fff2900:	b508      	push	{r3, lr}
1fff2902:	7881      	ldrb	r1, [r0, #2]
1fff2904:	466a      	mov	r2, sp
1fff2906:	7011      	strb	r1, [r2, #0]
1fff2908:	7941      	ldrb	r1, [r0, #5]
1fff290a:	7902      	ldrb	r2, [r0, #4]
1fff290c:	0209      	lsls	r1, r1, #8
1fff290e:	4311      	orrs	r1, r2
1fff2910:	0549      	lsls	r1, r1, #21
1fff2912:	0d49      	lsrs	r1, r1, #21
1fff2914:	466a      	mov	r2, sp
1fff2916:	8051      	strh	r1, [r2, #2]
1fff2918:	78c0      	ldrb	r0, [r0, #3]
1fff291a:	0780      	lsls	r0, r0, #30
1fff291c:	0f80      	lsrs	r0, r0, #30
1fff291e:	7050      	strb	r0, [r2, #1]
1fff2920:	4668      	mov	r0, sp
1fff2922:	f7ff fce7 	bl	0x1fff22f4
1fff2926:	2800      	cmp	r0, #0
1fff2928:	d001      	beq.n	0x1fff292e
1fff292a:	2000      	movs	r0, #0
1fff292c:	bd08      	pop	{r3, pc}
1fff292e:	2001      	movs	r0, #1
1fff2930:	bd08      	pop	{r3, pc}
1fff2932:	0000      	movs	r0, r0
1fff2934:	b5f3      	push	{r0, r1, r4, r5, r6, r7, lr}
1fff2936:	b081      	sub	sp, #4
1fff2938:	4818      	ldr	r0, [pc, #96]	@ (0x1fff299c)
1fff293a:	6984      	ldr	r4, [r0, #24]
1fff293c:	2000      	movs	r0, #0
1fff293e:	9000      	str	r0, [sp, #0]
1fff2940:	25ff      	movs	r5, #255	@ 0xff
1fff2942:	26ff      	movs	r6, #255	@ 0xff
1fff2944:	2700      	movs	r7, #0
1fff2946:	e01f      	b.n	0x1fff2988
1fff2948:	7860      	ldrb	r0, [r4, #1]
1fff294a:	2804      	cmp	r0, #4
1fff294c:	d002      	beq.n	0x1fff2954
1fff294e:	2805      	cmp	r0, #5
1fff2950:	d118      	bne.n	0x1fff2984
1fff2952:	e009      	b.n	0x1fff2968
1fff2954:	78e5      	ldrb	r5, [r4, #3]
1fff2956:	78a6      	ldrb	r6, [r4, #2]
1fff2958:	9801      	ldr	r0, [sp, #4]
1fff295a:	4286      	cmp	r6, r0
1fff295c:	d112      	bne.n	0x1fff2984
1fff295e:	9802      	ldr	r0, [sp, #8]
1fff2960:	4285      	cmp	r5, r0
1fff2962:	d10f      	bne.n	0x1fff2984
1fff2964:	9400      	str	r4, [sp, #0]
1fff2966:	e00d      	b.n	0x1fff2984
1fff2968:	9801      	ldr	r0, [sp, #4]
1fff296a:	4286      	cmp	r6, r0
1fff296c:	d10a      	bne.n	0x1fff2984
1fff296e:	4620      	mov	r0, r4
1fff2970:	9902      	ldr	r1, [sp, #8]
1fff2972:	428d      	cmp	r5, r1
1fff2974:	d003      	beq.n	0x1fff297e
1fff2976:	f7ff ff72 	bl	0x1fff285e
1fff297a:	4607      	mov	r7, r0
1fff297c:	e002      	b.n	0x1fff2984
1fff297e:	f7ff ffbf 	bl	0x1fff2900
1fff2982:	4607      	mov	r7, r0
1fff2984:	7820      	ldrb	r0, [r4, #0]
1fff2986:	1904      	adds	r4, r0, r4
1fff2988:	7820      	ldrb	r0, [r4, #0]
1fff298a:	2800      	cmp	r0, #0
1fff298c:	d1dc      	bne.n	0x1fff2948
1fff298e:	2008      	movs	r0, #8
1fff2990:	9900      	ldr	r1, [sp, #0]
1fff2992:	f7ff fc1f 	bl	0x1fff21d4
1fff2996:	4638      	mov	r0, r7
1fff2998:	bdfe      	pop	{r1, r2, r3, r4, r5, r6, r7, pc}
1fff299a:	0000      	movs	r0, r0
1fff299c:	007c      	lsls	r4, r7, #1
1fff299e:	2000      	movs	r0, #0
1fff29a0:	b510      	push	{r4, lr}
1fff29a2:	4604      	mov	r4, r0
1fff29a4:	7823      	ldrb	r3, [r4, #0]
1fff29a6:	2060      	movs	r0, #96	@ 0x60
1fff29a8:	4003      	ands	r3, r0
1fff29aa:	d005      	beq.n	0x1fff29b8
1fff29ac:	2b20      	cmp	r3, #32
1fff29ae:	d00d      	beq.n	0x1fff29cc
1fff29b0:	2b40      	cmp	r3, #64	@ 0x40
1fff29b2:	d015      	beq.n	0x1fff29e0
1fff29b4:	2000      	movs	r0, #0
1fff29b6:	bd10      	pop	{r4, pc}
1fff29b8:	4620      	mov	r0, r4
1fff29ba:	f000 f81d 	bl	0x1fff29f8
1fff29be:	2800      	cmp	r0, #0
1fff29c0:	da18      	bge.n	0x1fff29f4
1fff29c2:	4620      	mov	r0, r4
1fff29c4:	f7ff ff4a 	bl	0x1fff285c
1fff29c8:	2000      	movs	r0, #0
1fff29ca:	bd10      	pop	{r4, pc}
1fff29cc:	4620      	mov	r0, r4
1fff29ce:	f7ff fc13 	bl	0x1fff21f8
1fff29d2:	2800      	cmp	r0, #0
1fff29d4:	da0e      	bge.n	0x1fff29f4
1fff29d6:	4620      	mov	r0, r4
1fff29d8:	f7ff ff40 	bl	0x1fff285c
1fff29dc:	2000      	movs	r0, #0
1fff29de:	bd10      	pop	{r4, pc}
1fff29e0:	4620      	mov	r0, r4
1fff29e2:	f000 f915 	bl	0x1fff2c10
1fff29e6:	2800      	cmp	r0, #0
1fff29e8:	da04      	bge.n	0x1fff29f4
1fff29ea:	4620      	mov	r0, r4
1fff29ec:	f7ff ff36 	bl	0x1fff285c
1fff29f0:	2000      	movs	r0, #0
1fff29f2:	bd10      	pop	{r4, pc}
1fff29f4:	2001      	movs	r0, #1
1fff29f6:	bd10      	pop	{r4, pc}
1fff29f8:	b570      	push	{r4, r5, r6, lr}
1fff29fa:	2400      	movs	r4, #0
1fff29fc:	7803      	ldrb	r3, [r0, #0]
1fff29fe:	4d0e      	ldr	r5, [pc, #56]	@ (0x1fff2a38)
1fff2a00:	079b      	lsls	r3, r3, #30
1fff2a02:	0f9b      	lsrs	r3, r3, #30
1fff2a04:	d006      	beq.n	0x1fff2a14
1fff2a06:	2b01      	cmp	r3, #1
1fff2a08:	d00a      	beq.n	0x1fff2a20
1fff2a0a:	2b02      	cmp	r3, #2
1fff2a0c:	d00e      	beq.n	0x1fff2a2c
1fff2a0e:	462c      	mov	r4, r5
1fff2a10:	4620      	mov	r0, r4
1fff2a12:	bd70      	pop	{r4, r5, r6, pc}
1fff2a14:	f000 f812 	bl	0x1fff2a3c
1fff2a18:	2800      	cmp	r0, #0
1fff2a1a:	d1f9      	bne.n	0x1fff2a10
1fff2a1c:	462c      	mov	r4, r5
1fff2a1e:	e7f7      	b.n	0x1fff2a10
1fff2a20:	f000 f89a 	bl	0x1fff2b58
1fff2a24:	2800      	cmp	r0, #0
1fff2a26:	d1f3      	bne.n	0x1fff2a10
1fff2a28:	462c      	mov	r4, r5
1fff2a2a:	e7f1      	b.n	0x1fff2a10
1fff2a2c:	f000 f852 	bl	0x1fff2ad4
1fff2a30:	2800      	cmp	r0, #0
1fff2a32:	d1ed      	bne.n	0x1fff2a10
1fff2a34:	462c      	mov	r4, r5
1fff2a36:	e7eb      	b.n	0x1fff2a10
1fff2a38:	ffff ffff 			@ <UNDEFINED> instruction: 0xffffffff
1fff2a3c:	b5f8      	push	{r3, r4, r5, r6, r7, lr}
1fff2a3e:	4603      	mov	r3, r0
1fff2a40:	4615      	mov	r5, r2
1fff2a42:	78d8      	ldrb	r0, [r3, #3]
1fff2a44:	789a      	ldrb	r2, [r3, #2]
1fff2a46:	0200      	lsls	r0, r0, #8
1fff2a48:	4310      	orrs	r0, r2
1fff2a4a:	2401      	movs	r4, #1
1fff2a4c:	785a      	ldrb	r2, [r3, #1]
1fff2a4e:	2600      	movs	r6, #0
1fff2a50:	0013      	movs	r3, r2
1fff2a52:	f7ff f98d 	bl	0x1fff1d70
1fff2a56:	070c      	lsls	r4, r1, #28
1fff2a58:	390e      	subs	r1, #14
1fff2a5a:	390e      	subs	r1, #14
1fff2a5c:	1510      	asrs	r0, r2, #20
1fff2a5e:	1c1a      	adds	r2, r3, #0
1fff2a60:	3721      	adds	r7, #33	@ 0x21
1fff2a62:	3937      	subs	r1, #55	@ 0x37
1fff2a64:	6808      	ldr	r0, [r1, #0]
1fff2a66:	7006      	strb	r6, [r0, #0]
1fff2a68:	6808      	ldr	r0, [r1, #0]
1fff2a6a:	7046      	strb	r6, [r0, #1]
1fff2a6c:	2002      	movs	r0, #2
1fff2a6e:	6028      	str	r0, [r5, #0]
1fff2a70:	e02b      	b.n	0x1fff2aca
1fff2a72:	602e      	str	r6, [r5, #0]
1fff2a74:	e029      	b.n	0x1fff2aca
1fff2a76:	b2c0      	uxtb	r0, r0
1fff2a78:	f7ff ff0a 	bl	0x1fff2890
1fff2a7c:	602e      	str	r6, [r5, #0]
1fff2a7e:	e024      	b.n	0x1fff2aca
1fff2a80:	462a      	mov	r2, r5
1fff2a82:	f7ff fe75 	bl	0x1fff2770
1fff2a86:	4604      	mov	r4, r0
1fff2a88:	e01f      	b.n	0x1fff2aca
1fff2a8a:	2400      	movs	r4, #0
1fff2a8c:	e01d      	b.n	0x1fff2aca
1fff2a8e:	4810      	ldr	r0, [pc, #64]	@ (0x1fff2ad0)
1fff2a90:	6008      	str	r0, [r1, #0]
1fff2a92:	2001      	movs	r0, #1
1fff2a94:	6028      	str	r0, [r5, #0]
1fff2a96:	e018      	b.n	0x1fff2aca
1fff2a98:	b2c7      	uxtb	r7, r0
1fff2a9a:	4638      	mov	r0, r7
1fff2a9c:	2100      	movs	r1, #0
1fff2a9e:	f7ff ff05 	bl	0x1fff28ac
1fff2aa2:	2800      	cmp	r0, #0
1fff2aa4:	d00c      	beq.n	0x1fff2ac0
1fff2aa6:	480a      	ldr	r0, [pc, #40]	@ (0x1fff2ad0)
1fff2aa8:	381d      	subs	r0, #29
1fff2aaa:	7747      	strb	r7, [r0, #29]
1fff2aac:	2101      	movs	r1, #1
1fff2aae:	7701      	strb	r1, [r0, #28]
1fff2ab0:	2100      	movs	r1, #0
1fff2ab2:	2007      	movs	r0, #7
1fff2ab4:	f7ff fb8e 	bl	0x1fff21d4
1fff2ab8:	f7ff fbd2 	bl	0x1fff2260
1fff2abc:	602e      	str	r6, [r5, #0]
1fff2abe:	e004      	b.n	0x1fff2aca
1fff2ac0:	2400      	movs	r4, #0
1fff2ac2:	e7fb      	b.n	0x1fff2abc
1fff2ac4:	2400      	movs	r4, #0
1fff2ac6:	e000      	b.n	0x1fff2aca
1fff2ac8:	2400      	movs	r4, #0
1fff2aca:	4620      	mov	r0, r4
1fff2acc:	bdf8      	pop	{r3, r4, r5, r6, r7, pc}
1fff2ace:	0000      	movs	r0, r0
1fff2ad0:	01d9      	lsls	r1, r3, #7
1fff2ad2:	2000      	movs	r0, #0
1fff2ad4:	b5f7      	push	{r0, r1, r2, r4, r5, r6, r7, lr}
1fff2ad6:	b082      	sub	sp, #8
1fff2ad8:	4605      	mov	r5, r0
1fff2ada:	4616      	mov	r6, r2
1fff2adc:	7968      	ldrb	r0, [r5, #5]
1fff2ade:	7929      	ldrb	r1, [r5, #4]
1fff2ae0:	0200      	lsls	r0, r0, #8
1fff2ae2:	4308      	orrs	r0, r1
1fff2ae4:	b2c0      	uxtb	r0, r0
1fff2ae6:	9001      	str	r0, [sp, #4]
1fff2ae8:	2401      	movs	r4, #1
1fff2aea:	f7ff fad1 	bl	0x1fff2090
1fff2aee:	2800      	cmp	r0, #0
1fff2af0:	d00d      	beq.n	0x1fff2b0e
1fff2af2:	7868      	ldrb	r0, [r5, #1]
1fff2af4:	2700      	movs	r7, #0
1fff2af6:	2800      	cmp	r0, #0
1fff2af8:	d00b      	beq.n	0x1fff2b12
1fff2afa:	2801      	cmp	r0, #1
1fff2afc:	d012      	beq.n	0x1fff2b24
1fff2afe:	2803      	cmp	r0, #3
1fff2b00:	d01c      	beq.n	0x1fff2b3c
1fff2b02:	280c      	cmp	r0, #12
1fff2b04:	d026      	beq.n	0x1fff2b54
1fff2b06:	2400      	movs	r4, #0
1fff2b08:	4620      	mov	r0, r4
1fff2b0a:	b005      	add	sp, #20
1fff2b0c:	bdf0      	pop	{r4, r5, r6, r7, pc}
1fff2b0e:	2000      	movs	r0, #0
1fff2b10:	e7fb      	b.n	0x1fff2b0a
1fff2b12:	9803      	ldr	r0, [sp, #12]
1fff2b14:	6800      	ldr	r0, [r0, #0]
1fff2b16:	7007      	strb	r7, [r0, #0]
1fff2b18:	9803      	ldr	r0, [sp, #12]
1fff2b1a:	6800      	ldr	r0, [r0, #0]
1fff2b1c:	7047      	strb	r7, [r0, #1]
1fff2b1e:	2002      	movs	r0, #2
1fff2b20:	6030      	str	r0, [r6, #0]
1fff2b22:	e7f1      	b.n	0x1fff2b08
1fff2b24:	78e8      	ldrb	r0, [r5, #3]
1fff2b26:	78a9      	ldrb	r1, [r5, #2]
1fff2b28:	0200      	lsls	r0, r0, #8
1fff2b2a:	4308      	orrs	r0, r1
1fff2b2c:	d002      	beq.n	0x1fff2b34
1fff2b2e:	2400      	movs	r4, #0
1fff2b30:	6037      	str	r7, [r6, #0]
1fff2b32:	e7e9      	b.n	0x1fff2b08
1fff2b34:	9801      	ldr	r0, [sp, #4]
1fff2b36:	f7ff fba7 	bl	0x1fff2288
1fff2b3a:	e7e5      	b.n	0x1fff2b08
1fff2b3c:	78e8      	ldrb	r0, [r5, #3]
1fff2b3e:	78a9      	ldrb	r1, [r5, #2]
1fff2b40:	0200      	lsls	r0, r0, #8
1fff2b42:	4308      	orrs	r0, r1
1fff2b44:	d002      	beq.n	0x1fff2b4c
1fff2b46:	2400      	movs	r4, #0
1fff2b48:	6037      	str	r7, [r6, #0]
1fff2b4a:	e7dd      	b.n	0x1fff2b08
1fff2b4c:	9801      	ldr	r0, [sp, #4]
1fff2b4e:	f7ff fc4d 	bl	0x1fff23ec
1fff2b52:	e7f9      	b.n	0x1fff2b48
1fff2b54:	2400      	movs	r4, #0
1fff2b56:	e7d7      	b.n	0x1fff2b08
1fff2b58:	b5fe      	push	{r1, r2, r3, r4, r5, r6, r7, lr}
1fff2b5a:	4604      	mov	r4, r0
1fff2b5c:	460d      	mov	r5, r1
1fff2b5e:	4617      	mov	r7, r2
1fff2b60:	78e0      	ldrb	r0, [r4, #3]
1fff2b62:	78a1      	ldrb	r1, [r4, #2]
1fff2b64:	0200      	lsls	r0, r0, #8
1fff2b66:	4308      	orrs	r0, r1
1fff2b68:	0a00      	lsrs	r0, r0, #8
1fff2b6a:	9001      	str	r0, [sp, #4]
1fff2b6c:	7960      	ldrb	r0, [r4, #5]
1fff2b6e:	7921      	ldrb	r1, [r4, #4]
1fff2b70:	0200      	lsls	r0, r0, #8
1fff2b72:	4308      	orrs	r0, r1
1fff2b74:	b2c0      	uxtb	r0, r0
1fff2b76:	9000      	str	r0, [sp, #0]
1fff2b78:	2601      	movs	r6, #1
1fff2b7a:	f7ff fa89 	bl	0x1fff2090
1fff2b7e:	2800      	cmp	r0, #0
1fff2b80:	d00a      	beq.n	0x1fff2b98
1fff2b82:	7860      	ldrb	r0, [r4, #1]
1fff2b84:	0003      	movs	r3, r0
1fff2b86:	f7ff f8f3 	bl	0x1fff1d70
1fff2b8a:	090c      	lsrs	r4, r1, #4
1fff2b8c:	3d26      	subs	r5, #38	@ 0x26
1fff2b8e:	3d26      	subs	r5, #38	@ 0x26
1fff2b90:	113d      	asrs	r5, r7, #4
1fff2b92:	3d3d      	subs	r5, #61	@ 0x3d
1fff2b94:	283d      	cmp	r0, #61	@ 0x3d
1fff2b96:	3d2e      	subs	r5, #46	@ 0x2e
1fff2b98:	2000      	movs	r0, #0
1fff2b9a:	bdfe      	pop	{r1, r2, r3, r4, r5, r6, r7, pc}
1fff2b9c:	6829      	ldr	r1, [r5, #0]
1fff2b9e:	2000      	movs	r0, #0
1fff2ba0:	7008      	strb	r0, [r1, #0]
1fff2ba2:	6829      	ldr	r1, [r5, #0]
1fff2ba4:	7048      	strb	r0, [r1, #1]
1fff2ba6:	2002      	movs	r0, #2
1fff2ba8:	6038      	str	r0, [r7, #0]
1fff2baa:	e02c      	b.n	0x1fff2c06
1fff2bac:	9801      	ldr	r0, [sp, #4]
1fff2bae:	2822      	cmp	r0, #34	@ 0x22
1fff2bb0:	d10f      	bne.n	0x1fff2bd2
1fff2bb2:	4816      	ldr	r0, [pc, #88]	@ (0x1fff2c0c)
1fff2bb4:	6800      	ldr	r0, [r0, #0]
1fff2bb6:	e00a      	b.n	0x1fff2bce
1fff2bb8:	7f02      	ldrb	r2, [r0, #28]
1fff2bba:	9900      	ldr	r1, [sp, #0]
1fff2bbc:	428a      	cmp	r2, r1
1fff2bbe:	d105      	bne.n	0x1fff2bcc
1fff2bc0:	6941      	ldr	r1, [r0, #20]
1fff2bc2:	6029      	str	r1, [r5, #0]
1fff2bc4:	6980      	ldr	r0, [r0, #24]
1fff2bc6:	6038      	str	r0, [r7, #0]
1fff2bc8:	2001      	movs	r0, #1
1fff2bca:	bdfe      	pop	{r1, r2, r3, r4, r5, r6, r7, pc}
1fff2bcc:	6800      	ldr	r0, [r0, #0]
1fff2bce:	2800      	cmp	r0, #0
1fff2bd0:	d1f2      	bne.n	0x1fff2bb8
1fff2bd2:	2600      	movs	r6, #0
1fff2bd4:	e017      	b.n	0x1fff2c06
1fff2bd6:	2600      	movs	r6, #0
1fff2bd8:	e015      	b.n	0x1fff2c06
1fff2bda:	6829      	ldr	r1, [r5, #0]
1fff2bdc:	2000      	movs	r0, #0
1fff2bde:	7008      	strb	r0, [r1, #0]
1fff2be0:	2001      	movs	r0, #1
1fff2be2:	6038      	str	r0, [r7, #0]
1fff2be4:	e00f      	b.n	0x1fff2c06
1fff2be6:	78e0      	ldrb	r0, [r4, #3]
1fff2be8:	78a1      	ldrb	r1, [r4, #2]
1fff2bea:	0200      	lsls	r0, r0, #8
1fff2bec:	4308      	orrs	r0, r1
1fff2bee:	b2c1      	uxtb	r1, r0
1fff2bf0:	7960      	ldrb	r0, [r4, #5]
1fff2bf2:	7922      	ldrb	r2, [r4, #4]
1fff2bf4:	0200      	lsls	r0, r0, #8
1fff2bf6:	4310      	orrs	r0, r2
1fff2bf8:	b2c0      	uxtb	r0, r0
1fff2bfa:	f7ff fe9b 	bl	0x1fff2934
1fff2bfe:	2000      	movs	r0, #0
1fff2c00:	6038      	str	r0, [r7, #0]
1fff2c02:	e000      	b.n	0x1fff2c06
1fff2c04:	2600      	movs	r6, #0
1fff2c06:	4630      	mov	r0, r6
1fff2c08:	bdfe      	pop	{r1, r2, r3, r4, r5, r6, r7, pc}
1fff2c0a:	0000      	movs	r0, r0
1fff2c0c:	0028      	movs	r0, r5
1fff2c0e:	2000      	movs	r0, #0
1fff2c10:	b5f8      	push	{r3, r4, r5, r6, r7, lr}
1fff2c12:	4605      	mov	r5, r0
1fff2c14:	460e      	mov	r6, r1
1fff2c16:	4617      	mov	r7, r2
1fff2c18:	4923      	ldr	r1, [pc, #140]	@ (0x1fff2ca8)
1fff2c1a:	6848      	ldr	r0, [r1, #4]
1fff2c1c:	2800      	cmp	r0, #0
1fff2c1e:	d01a      	beq.n	0x1fff2c56
1fff2c20:	7869      	ldrb	r1, [r5, #1]
1fff2c22:	7942      	ldrb	r2, [r0, #5]
1fff2c24:	4291      	cmp	r1, r2
1fff2c26:	d12c      	bne.n	0x1fff2c82
1fff2c28:	7969      	ldrb	r1, [r5, #5]
1fff2c2a:	792a      	ldrb	r2, [r5, #4]
1fff2c2c:	0209      	lsls	r1, r1, #8
1fff2c2e:	4311      	orrs	r1, r2
1fff2c30:	2904      	cmp	r1, #4
1fff2c32:	d004      	beq.n	0x1fff2c3e
1fff2c34:	2905      	cmp	r1, #5
1fff2c36:	d008      	beq.n	0x1fff2c4a
1fff2c38:	2000      	movs	r0, #0
1fff2c3a:	43c0      	mvns	r0, r0
1fff2c3c:	bdf8      	pop	{r3, r4, r5, r6, r7, pc}
1fff2c3e:	6881      	ldr	r1, [r0, #8]
1fff2c40:	6031      	str	r1, [r6, #0]
1fff2c42:	8980      	ldrh	r0, [r0, #12]
1fff2c44:	6038      	str	r0, [r7, #0]
1fff2c46:	2000      	movs	r0, #0
1fff2c48:	bdf8      	pop	{r3, r4, r5, r6, r7, pc}
1fff2c4a:	6901      	ldr	r1, [r0, #16]
1fff2c4c:	6031      	str	r1, [r6, #0]
1fff2c4e:	8a80      	ldrh	r0, [r0, #20]
1fff2c50:	6038      	str	r0, [r7, #0]
1fff2c52:	2000      	movs	r0, #0
1fff2c54:	bdf8      	pop	{r3, r4, r5, r6, r7, pc}
1fff2c56:	6888      	ldr	r0, [r1, #8]
1fff2c58:	2800      	cmp	r0, #0
1fff2c5a:	d012      	beq.n	0x1fff2c82
1fff2c5c:	7869      	ldrb	r1, [r5, #1]
1fff2c5e:	7982      	ldrb	r2, [r0, #6]
1fff2c60:	4291      	cmp	r1, r2
1fff2c62:	d10e      	bne.n	0x1fff2c82
1fff2c64:	7969      	ldrb	r1, [r5, #5]
1fff2c66:	792a      	ldrb	r2, [r5, #4]
1fff2c68:	0209      	lsls	r1, r1, #8
1fff2c6a:	4311      	orrs	r1, r2
1fff2c6c:	2907      	cmp	r1, #7
1fff2c6e:	d002      	beq.n	0x1fff2c76
1fff2c70:	2000      	movs	r0, #0
1fff2c72:	43c0      	mvns	r0, r0
1fff2c74:	bdf8      	pop	{r3, r4, r5, r6, r7, pc}
1fff2c76:	6801      	ldr	r1, [r0, #0]
1fff2c78:	6031      	str	r1, [r6, #0]
1fff2c7a:	8880      	ldrh	r0, [r0, #4]
1fff2c7c:	6038      	str	r0, [r7, #0]
1fff2c7e:	2000      	movs	r0, #0
1fff2c80:	bdf8      	pop	{r3, r4, r5, r6, r7, pc}
1fff2c82:	4809      	ldr	r0, [pc, #36]	@ (0x1fff2ca8)
1fff2c84:	6804      	ldr	r4, [r0, #0]
1fff2c86:	e009      	b.n	0x1fff2c9c
1fff2c88:	68e3      	ldr	r3, [r4, #12]
1fff2c8a:	2b00      	cmp	r3, #0
1fff2c8c:	d005      	beq.n	0x1fff2c9a
1fff2c8e:	463a      	mov	r2, r7
1fff2c90:	4631      	mov	r1, r6
1fff2c92:	4628      	mov	r0, r5
1fff2c94:	4798      	blx	r3
1fff2c96:	2800      	cmp	r0, #0
1fff2c98:	d004      	beq.n	0x1fff2ca4
1fff2c9a:	6824      	ldr	r4, [r4, #0]
1fff2c9c:	2c00      	cmp	r4, #0
1fff2c9e:	d1f3      	bne.n	0x1fff2c88
1fff2ca0:	1e60      	subs	r0, r4, #1
1fff2ca2:	bdf8      	pop	{r3, r4, r5, r6, r7, pc}
1fff2ca4:	2000      	movs	r0, #0
1fff2ca6:	bdf8      	pop	{r3, r4, r5, r6, r7, pc}
1fff2ca8:	0028      	movs	r0, r5
1fff2caa:	2000      	movs	r0, #0
1fff2cac:	2000      	movs	r0, #0
1fff2cae:	4770      	bx	lr
1fff2cb0:	2000      	movs	r0, #0
1fff2cb2:	4770      	bx	lr
1fff2cb4:	2000      	movs	r0, #0
1fff2cb6:	4770      	bx	lr
1fff2cb8:	4770      	bx	lr
1fff2cba:	4770      	bx	lr
1fff2cbc:	4770      	bx	lr
	...
1fff2cde:	0000      	movs	r0, r0
1fff2ce0:	0001      	movs	r1, r0
1fff2ce2:	0000      	movs	r0, r0
1fff2ce4:	0002      	movs	r2, r0
1fff2ce6:	0000      	movs	r0, r0
1fff2ce8:	0003      	movs	r3, r0
1fff2cea:	0000      	movs	r0, r0
1fff2cec:	0004      	movs	r4, r0
1fff2cee:	0000      	movs	r0, r0
1fff2cf0:	0006      	movs	r6, r0
1fff2cf2:	0000      	movs	r0, r0
1fff2cf4:	0007      	movs	r7, r0
1fff2cf6:	0000      	movs	r0, r0
1fff2cf8:	0008      	movs	r0, r1
1fff2cfa:	0000      	movs	r0, r0
1fff2cfc:	0009      	movs	r1, r1
1fff2cfe:	0000      	movs	r0, r0
1fff2d00:	0900      	lsrs	r0, r0, #4
1fff2d02:	003d      	movs	r5, r7
1fff2d04:	1200      	asrs	r0, r0, #8
1fff2d06:	007a      	lsls	r2, r7, #1
1fff2d08:	2400      	movs	r4, #0
1fff2d0a:	00f4      	lsls	r4, r6, #3
1fff2d0c:	8640      	strh	r0, [r0, #50]	@ 0x32
1fff2d0e:	0151      	lsls	r1, r2, #5
1fff2d10:	3600      	adds	r6, #0
1fff2d12:	016e      	lsls	r6, r5, #5
1fff2d14:	0900      	lsrs	r0, r0, #4
1fff2d16:	003d      	movs	r5, r7
1fff2d18:	0900      	lsrs	r0, r0, #4
1fff2d1a:	003d      	movs	r5, r7
1fff2d1c:	0900      	lsrs	r0, r0, #4
1fff2d1e:	003d      	movs	r5, r7
1fff2d20:	0112      	lsls	r2, r2, #4
1fff2d22:	0200      	lsls	r0, r0, #8
1fff2d24:	0000      	movs	r0, r0
1fff2d26:	4000      	ands	r0, r0
1fff2d28:	ffff 0448 	vmls.i<illegal width 64>	q8, <illegal reg q7.5>, d8[0]
1fff2d2c:	0002      	movs	r2, r0
1fff2d2e:	0201      	lsls	r1, r0, #8
1fff2d30:	0103      	lsls	r3, r0, #4
1fff2d32:	0209      	lsls	r1, r1, #8
1fff2d34:	0029      	movs	r1, r5
1fff2d36:	0101      	lsls	r1, r0, #4
1fff2d38:	8000      	strh	r0, [r0, #0]
1fff2d3a:	0932      	lsrs	r2, r6, #4
1fff2d3c:	0004      	movs	r4, r0
1fff2d3e:	0200      	lsls	r0, r0, #8
1fff2d40:	0103      	lsls	r3, r0, #4
1fff2d42:	0000      	movs	r0, r0
1fff2d44:	2109      	movs	r1, #9
1fff2d46:	0111      	lsls	r1, r2, #4
1fff2d48:	0100      	lsls	r0, r0, #4
1fff2d4a:	2222      	movs	r2, #34	@ 0x22
1fff2d4c:	0700      	lsls	r0, r0, #28
1fff2d4e:	8105      	strh	r5, [r0, #8]
1fff2d50:	4003      	ands	r3, r0
1fff2d52:	0100      	lsls	r0, r0, #4
1fff2d54:	0507      	lsls	r7, r0, #20
1fff2d56:	0302      	lsls	r2, r0, #12
1fff2d58:	0040      	lsls	r0, r0, #1
1fff2d5a:	0401      	lsls	r1, r0, #16
1fff2d5c:	0903      	lsrs	r3, r0, #4
1fff2d5e:	0804      	lsrs	r4, r0, #32
1fff2d60:	4103      	asrs	r3, r0
1fff2d62:	5200      	strh	r0, [r0, r0]
1fff2d64:	4d00      	ldr	r5, [pc, #0]	@ (0x1fff2d68)
1fff2d66:	2e00      	cmp	r6, #0
1fff2d68:	4103      	asrs	r3, r0
1fff2d6a:	5200      	strh	r0, [r0, r0]
1fff2d6c:	4d00      	ldr	r5, [pc, #0]	@ (0x1fff2d70)
1fff2d6e:	2000      	movs	r0, #0
1fff2d70:	4400      	add	r0, r0
1fff2d72:	6500      	str	r0, [r0, #80]	@ 0x50
1fff2d74:	7600      	strb	r0, [r0, #24]
1fff2d76:	6900      	ldr	r0, [r0, #16]
1fff2d78:	6300      	str	r0, [r0, #48]	@ 0x30
1fff2d7a:	6500      	str	r0, [r0, #80]	@ 0x50
1fff2d7c:	2000      	movs	r0, #0
1fff2d7e:	6900      	ldr	r0, [r0, #16]
1fff2d80:	6e00      	ldr	r0, [r0, #96]	@ 0x60
1fff2d82:	2000      	movs	r0, #0
1fff2d84:	4400      	add	r0, r0
1fff2d86:	4600      	mov	r0, r0
1fff2d88:	5500      	strb	r0, [r0, r4]
1fff2d8a:	2000      	movs	r0, #0
1fff2d8c:	4d00      	ldr	r5, [pc, #0]	@ (0x1fff2d90)
1fff2d8e:	6f00      	ldr	r0, [r0, #112]	@ 0x70
1fff2d90:	6400      	str	r0, [r0, #64]	@ 0x40
1fff2d92:	6500      	str	r0, [r0, #80]	@ 0x50
1fff2d94:	1600      	asrs	r0, r0, #24
1fff2d96:	3203      	adds	r2, #3
1fff2d98:	3000      	adds	r0, #0
1fff2d9a:	3200      	adds	r2, #0
1fff2d9c:	3300      	adds	r3, #0
1fff2d9e:	3000      	adds	r0, #0
1fff2da0:	3300      	adds	r3, #0
1fff2da2:	3200      	adds	r2, #0
1fff2da4:	3300      	adds	r3, #0
1fff2da6:	3100      	adds	r1, #0
1fff2da8:	3000      	adds	r0, #0
1fff2daa:	0000      	movs	r0, r0
1fff2dac:	0006      	movs	r6, r0
1fff2dae:	09ff      	lsrs	r7, r7, #7
1fff2db0:	a101      	add	r1, pc, #4	@ (adr r1, 0x1fff2db8)
1fff2db2:	0901      	lsrs	r1, r0, #4
1fff2db4:	1501      	asrs	r1, r0, #20
1fff2db6:	2600      	movs	r6, #0
1fff2db8:	00ff      	lsls	r7, r7, #3
1fff2dba:	4095      	lsls	r5, r2
1fff2dbc:	0875      	lsrs	r5, r6, #1
1fff2dbe:	0281      	lsls	r1, r0, #10
1fff2dc0:	0109      	lsls	r1, r1, #4
1fff2dc2:	0015      	movs	r5, r2
1fff2dc4:	ff26 9500 	vrshl.u32	d9, d0, d6
1fff2dc8:	7540      	strb	r0, [r0, #21]
1fff2dca:	9108      	str	r1, [sp, #32]
1fff2dcc:	c002      	stmia	r0!, {r1}
1fff2dce:	0100      	lsls	r0, r0, #4
1fff2dd0:	1102      	asrs	r2, r0, #4
1fff2dd2:	3121      	adds	r1, #33	@ 0x21
1fff2dd4:	6344      	str	r4, [r0, #52]	@ 0x34
1fff2dd6:	8273      	strh	r3, [r6, #18]
1fff2dd8:	0392      	lsls	r2, r2, #14
1fff2dda:	0000      	movs	r0, r0
1fff2ddc:	1b00      	subs	r0, r0, r4
1fff2dde:	00b7      	lsls	r7, r6, #2
1fff2de0:	2400      	movs	r4, #0
1fff2de2:	00f4      	lsls	r4, r6, #3
1fff2de4:	3600      	adds	r6, #0
1fff2de6:	016e      	lsls	r6, r5, #5
1fff2de8:	3600      	adds	r6, #0
1fff2dea:	016e      	lsls	r6, r5, #5
1fff2dec:	0900      	lsrs	r0, r0, #4
1fff2dee:	003d      	movs	r5, r7
1fff2df0:	1200      	asrs	r0, r0, #8
1fff2df2:	007a      	lsls	r2, r7, #1
1fff2df4:	2400      	movs	r4, #0
1fff2df6:	00f4      	lsls	r4, r6, #3
1fff2df8:	8640      	strh	r0, [r0, #50]	@ 0x32
1fff2dfa:	0151      	lsls	r1, r2, #5
1fff2dfc:	3600      	adds	r6, #0
1fff2dfe:	016e      	lsls	r6, r5, #5
1fff2e00:	0002      	movs	r2, r0
1fff2e02:	0000      	movs	r0, r0
1fff2e04:	0003      	movs	r3, r0
1fff2e06:	0000      	movs	r0, r0
1fff2e08:	0002      	movs	r2, r0
1fff2e0a:	0000      	movs	r0, r0
1fff2e0c:	0002      	movs	r2, r0
1fff2e0e:	0000      	movs	r0, r0
1fff2e10:	2e30      	cmp	r6, #48	@ 0x30
1fff2e12:	1fff      	subs	r7, r7, #7
1fff2e14:	0000      	movs	r0, r0
1fff2e16:	2000      	movs	r0, #0
1fff2e18:	01dc      	lsls	r4, r3, #7
1fff2e1a:	0000      	movs	r0, r0
1fff2e1c:	0188      	lsls	r0, r1, #6
1fff2e1e:	1fff      	subs	r7, r7, #7
1fff2e20:	2e48      	cmp	r6, #72	@ 0x48
1fff2e22:	1fff      	subs	r7, r7, #7
1fff2e24:	01dc      	lsls	r4, r3, #7
1fff2e26:	2000      	movs	r0, #0
1fff2e28:	05a4      	lsls	r4, r4, #22
1fff2e2a:	0000      	movs	r0, r0
1fff2e2c:	1d9a      	adds	r2, r3, #6
1fff2e2e:	1fff      	subs	r7, r7, #7
1fff2e30:	0064      	lsls	r4, r4, #1
1fff2e32:	7a12      	ldrb	r2, [r2, #8]
1fff2e34:	8142      	strh	r2, [r0, #10]
1fff2e36:	1546      	asrs	r6, r0, #21
1fff2e38:	ff28 021f 	vqsub.u32	d0, d8, d15
1fff2e3c:	2155      	movs	r1, #85	@ 0x55
1fff2e3e:	ff28 421f 	vqsub.u32	d4, d8, d15
1fff2e42:	0204      	lsls	r4, r0, #8
1fff2e44:	01ff      	lsls	r7, r7, #7
1fff2e46:	be01      	bkpt	0x0001
1fff2e48:	ffff ffff 			@ <UNDEFINED> instruction: 0xffffffff
1fff2e4c:	ffff ffff 			@ <UNDEFINED> instruction: 0xffffffff
1fff2e50:	ffff ffff 			@ <UNDEFINED> instruction: 0xffffffff
1fff2e54:	ffff ffff 			@ <UNDEFINED> instruction: 0xffffffff
1fff2e58:	ffff ffff 			@ <UNDEFINED> instruction: 0xffffffff
1fff2e5c:	ffff ffff 			@ <UNDEFINED> instruction: 0xffffffff
1fff2e60:	ffff ffff 			@ <UNDEFINED> instruction: 0xffffffff
1fff2e64:	ffff ffff 			@ <UNDEFINED> instruction: 0xffffffff
1fff2e68:	ffff ffff 			@ <UNDEFINED> instruction: 0xffffffff
1fff2e6c:	ffff ffff 			@ <UNDEFINED> instruction: 0xffffffff
1fff2e70:	ffff ffff 			@ <UNDEFINED> instruction: 0xffffffff
1fff2e74:	ffff ffff 			@ <UNDEFINED> instruction: 0xffffffff
1fff2e78:	ffff ffff 			@ <UNDEFINED> instruction: 0xffffffff
1fff2e7c:	ffff ffff 			@ <UNDEFINED> instruction: 0xffffffff
1fff2e80:	ffff ffff 			@ <UNDEFINED> instruction: 0xffffffff
1fff2e84:	ffff ffff 			@ <UNDEFINED> instruction: 0xffffffff
1fff2e88:	ffff ffff 			@ <UNDEFINED> instruction: 0xffffffff
1fff2e8c:	ffff ffff 			@ <UNDEFINED> instruction: 0xffffffff
1fff2e90:	ffff ffff 			@ <UNDEFINED> instruction: 0xffffffff
1fff2e94:	ffff ffff 			@ <UNDEFINED> instruction: 0xffffffff
1fff2e98:	ffff ffff 			@ <UNDEFINED> instruction: 0xffffffff
1fff2e9c:	ffff ffff 			@ <UNDEFINED> instruction: 0xffffffff
1fff2ea0:	ffff ffff 			@ <UNDEFINED> instruction: 0xffffffff
1fff2ea4:	ffff ffff 			@ <UNDEFINED> instruction: 0xffffffff
1fff2ea8:	ffff ffff 			@ <UNDEFINED> instruction: 0xffffffff
1fff2eac:	ffff ffff 			@ <UNDEFINED> instruction: 0xffffffff
1fff2eb0:	ffff ffff 			@ <UNDEFINED> instruction: 0xffffffff
1fff2eb4:	ffff ffff 			@ <UNDEFINED> instruction: 0xffffffff
1fff2eb8:	ffff ffff 			@ <UNDEFINED> instruction: 0xffffffff
1fff2ebc:	ffff ffff 			@ <UNDEFINED> instruction: 0xffffffff
1fff2ec0:	ffff ffff 			@ <UNDEFINED> instruction: 0xffffffff
1fff2ec4:	ffff ffff 			@ <UNDEFINED> instruction: 0xffffffff
1fff2ec8:	ffff ffff 			@ <UNDEFINED> instruction: 0xffffffff
1fff2ecc:	ffff ffff 			@ <UNDEFINED> instruction: 0xffffffff
1fff2ed0:	ffff ffff 			@ <UNDEFINED> instruction: 0xffffffff
1fff2ed4:	ffff ffff 			@ <UNDEFINED> instruction: 0xffffffff
1fff2ed8:	ffff ffff 			@ <UNDEFINED> instruction: 0xffffffff
1fff2edc:	ffff ffff 			@ <UNDEFINED> instruction: 0xffffffff
1fff2ee0:	ffff ffff 			@ <UNDEFINED> instruction: 0xffffffff
1fff2ee4:	ffff ffff 			@ <UNDEFINED> instruction: 0xffffffff
1fff2ee8:	ffff ffff 			@ <UNDEFINED> instruction: 0xffffffff
1fff2eec:	ffff ffff 			@ <UNDEFINED> instruction: 0xffffffff
1fff2ef0:	ffff ffff 			@ <UNDEFINED> instruction: 0xffffffff
1fff2ef4:	ffff ffff 			@ <UNDEFINED> instruction: 0xffffffff
1fff2ef8:	ffff ffff 			@ <UNDEFINED> instruction: 0xffffffff
1fff2efc:	ffff ffff 			@ <UNDEFINED> instruction: 0xffffffff
1fff2f00:	3332      	adds	r3, #50	@ 0x32
1fff2f02:	5059      	str	r1, [r3, r1]
1fff2f04:	3732      	adds	r7, #50	@ 0x32
1fff2f06:	4630      	mov	r0, r6
1fff2f08:	4255      	negs	r5, r2
1fff2f0a:	4b31      	ldr	r3, [pc, #196]	@ (0x1fff2fd0)
1fff2f0c:	3030      	adds	r0, #48	@ 0x30
1fff2f0e:	3630      	adds	r6, #48	@ 0x30
1fff2f10:	cfc0      	ldmia	r7, {r6, r7}
1fff2f12:	fffe 0000 	vaddl.u<illegal width 64>	q8, d14, d0
1fff2f16:	0003      	movs	r3, r0
1fff2f18:	2480      	movs	r4, #128	@ 0x80
1fff2f1a:	0000      	movs	r0, r0
1fff2f1c:	0000      	movs	r0, r0
1fff2f1e:	0000      	movs	r0, r0
1fff2f20:	0103      	lsls	r3, r0, #4
1fff2f22:	59ff      	ldr	r7, [r7, r7]
1fff2f24:	1c00      	adds	r0, r0, #0
1fff2f26:	1804      	adds	r4, r0, r0
1fff2f28:	ffff 01ff 	vsra.u64	q8, <illegal reg q15.5>, #1
1fff2f2c:	ffff ffff 			@ <UNDEFINED> instruction: 0xffffffff
1fff2f30:	ff87 ffff 			@ <UNDEFINED> instruction: 0xff87ffff
1fff2f34:	ffff ffff 			@ <UNDEFINED> instruction: 0xffffffff
1fff2f38:	ffff ffff 			@ <UNDEFINED> instruction: 0xffffffff
1fff2f3c:	ffff ffff 			@ <UNDEFINED> instruction: 0xffffffff
1fff2f40:	ffff ffff 			@ <UNDEFINED> instruction: 0xffffffff
1fff2f44:	ffff ffff 			@ <UNDEFINED> instruction: 0xffffffff
1fff2f48:	ffff ffff 			@ <UNDEFINED> instruction: 0xffffffff
1fff2f4c:	ffff ffff 			@ <UNDEFINED> instruction: 0xffffffff
1fff2f50:	ffff ffff 			@ <UNDEFINED> instruction: 0xffffffff
1fff2f54:	ffff ffff 			@ <UNDEFINED> instruction: 0xffffffff
1fff2f58:	ffff ffff 			@ <UNDEFINED> instruction: 0xffffffff
1fff2f5c:	ffff ffff 			@ <UNDEFINED> instruction: 0xffffffff
1fff2f60:	ffff ffff 			@ <UNDEFINED> instruction: 0xffffffff
1fff2f64:	ffff ffff 			@ <UNDEFINED> instruction: 0xffffffff
1fff2f68:	ffff ffff 			@ <UNDEFINED> instruction: 0xffffffff
1fff2f6c:	ffff ffff 			@ <UNDEFINED> instruction: 0xffffffff
1fff2f70:	ffff ffff 			@ <UNDEFINED> instruction: 0xffffffff
1fff2f74:	ffff ffff 			@ <UNDEFINED> instruction: 0xffffffff
1fff2f78:	ffff ffff 			@ <UNDEFINED> instruction: 0xffffffff
1fff2f7c:	ffff ffff 			@ <UNDEFINED> instruction: 0xffffffff
1fff2f80:	ffff ffff 			@ <UNDEFINED> instruction: 0xffffffff
1fff2f84:	ffff ffff 			@ <UNDEFINED> instruction: 0xffffffff
1fff2f88:	ffff ffff 			@ <UNDEFINED> instruction: 0xffffffff
1fff2f8c:	ffff ffff 			@ <UNDEFINED> instruction: 0xffffffff
1fff2f90:	ffff ffff 			@ <UNDEFINED> instruction: 0xffffffff
1fff2f94:	ffff ffff 			@ <UNDEFINED> instruction: 0xffffffff
1fff2f98:	ffff ffff 			@ <UNDEFINED> instruction: 0xffffffff
1fff2f9c:	ffff ffff 			@ <UNDEFINED> instruction: 0xffffffff
1fff2fa0:	ffff ffff 			@ <UNDEFINED> instruction: 0xffffffff
1fff2fa4:	ffff ffff 			@ <UNDEFINED> instruction: 0xffffffff
1fff2fa8:	ffff ffff 			@ <UNDEFINED> instruction: 0xffffffff
1fff2fac:	ffff ffff 			@ <UNDEFINED> instruction: 0xffffffff
1fff2fb0:	ffff ffff 			@ <UNDEFINED> instruction: 0xffffffff
1fff2fb4:	ffff ffff 			@ <UNDEFINED> instruction: 0xffffffff
1fff2fb8:	ffff ffff 			@ <UNDEFINED> instruction: 0xffffffff
1fff2fbc:	ffff ffff 			@ <UNDEFINED> instruction: 0xffffffff
1fff2fc0:	ffff ffff 			@ <UNDEFINED> instruction: 0xffffffff
1fff2fc4:	ffff ffff 			@ <UNDEFINED> instruction: 0xffffffff
1fff2fc8:	ffff ffff 			@ <UNDEFINED> instruction: 0xffffffff
1fff2fcc:	ffff ffff 			@ <UNDEFINED> instruction: 0xffffffff
1fff2fd0:	ffff ffff 			@ <UNDEFINED> instruction: 0xffffffff
1fff2fd4:	ffff ffff 			@ <UNDEFINED> instruction: 0xffffffff
1fff2fd8:	ffff ffff 			@ <UNDEFINED> instruction: 0xffffffff
1fff2fdc:	ffff ffff 			@ <UNDEFINED> instruction: 0xffffffff
1fff2fe0:	ffff ffff 			@ <UNDEFINED> instruction: 0xffffffff
1fff2fe4:	ffff ffff 			@ <UNDEFINED> instruction: 0xffffffff
1fff2fe8:	ffff ffff 			@ <UNDEFINED> instruction: 0xffffffff
1fff2fec:	ffff ffff 			@ <UNDEFINED> instruction: 0xffffffff
1fff2ff0:	ffff ffff 			@ <UNDEFINED> instruction: 0xffffffff
1fff2ff4:	ffff ffff 			@ <UNDEFINED> instruction: 0xffffffff
1fff2ff8:	ffff ffff 			@ <UNDEFINED> instruction: 0xffffffff
1fff2ffc:	ffff ffff 			@ <UNDEFINED> instruction: 0xffffffff
1fff3000:	344a      	adds	r4, #74	@ 0x4a
1fff3002:	4150      	adcs	r0, r2
1fff3004:	3303      	adds	r3, #3
1fff3006:	3731      	adds	r7, #49	@ 0x31
1fff3008:	4c43      	ldr	r4, [pc, #268]	@ (0x1fff3118)
1fff300a:	0019      	movs	r1, r3
1fff300c:	6378      	str	r0, [r7, #52]	@ 0x34
1fff300e:	5602      	ldrsb	r2, [r0, r0]
1fff3010:	ffff 0110 	vsra.u32	d16, d0, #1
1fff3014:	78ba      	ldrb	r2, [r7, #2]
1fff3016:	65ba      	str	r2, [r7, #88]	@ 0x58
1fff3018:	ffff 9aff 			@ <UNDEFINED> instruction: 0xffff9aff
1fff301c:	ffff ffff 			@ <UNDEFINED> instruction: 0xffffffff
1fff3020:	ee6a 1195 			@ <UNDEFINED> instruction: 0xee6a1195
1fff3024:	ffff ffff 			@ <UNDEFINED> instruction: 0xffffffff
1fff3028:	ffff ffff 			@ <UNDEFINED> instruction: 0xffffffff
1fff302c:	eadf 1520 			@ <UNDEFINED> instruction: 0xeadf1520
1fff3030:	debf      	udf	#191	@ 0xbf
1fff3032:	2140      	movs	r1, #64	@ 0x40
1fff3034:	d9a9      	bls.n	0x1fff2f8a
1fff3036:	2656      	movs	r6, #86	@ 0x56
1fff3038:	ffff ffff 			@ <UNDEFINED> instruction: 0xffffffff
1fff303c:	3f1b      	subs	r7, #27
1fff303e:	c0e4      	stmia	r0!, {r2, r5, r6, r7}
1fff3040:	ffff ffff 			@ <UNDEFINED> instruction: 0xffffffff
1fff3044:	ffff ffff 			@ <UNDEFINED> instruction: 0xffffffff
1fff3048:	ffff ffff 			@ <UNDEFINED> instruction: 0xffffffff
1fff304c:	ffff ffff 			@ <UNDEFINED> instruction: 0xffffffff
1fff3050:	ffff ffff 			@ <UNDEFINED> instruction: 0xffffffff
1fff3054:	ffff ffff 			@ <UNDEFINED> instruction: 0xffffffff
1fff3058:	ffff ffff 			@ <UNDEFINED> instruction: 0xffffffff
1fff305c:	ffff ffff 			@ <UNDEFINED> instruction: 0xffffffff
1fff3060:	ffff ffff 			@ <UNDEFINED> instruction: 0xffffffff
1fff3064:	ffff ffff 			@ <UNDEFINED> instruction: 0xffffffff
1fff3068:	ffff ffff 			@ <UNDEFINED> instruction: 0xffffffff
1fff306c:	ffff ffff 			@ <UNDEFINED> instruction: 0xffffffff
1fff3070:	ffff ffff 			@ <UNDEFINED> instruction: 0xffffffff
1fff3074:	ffff ffff 			@ <UNDEFINED> instruction: 0xffffffff
1fff3078:	ffff ffff 			@ <UNDEFINED> instruction: 0xffffffff
1fff307c:	ffff ffff 			@ <UNDEFINED> instruction: 0xffffffff
1fff3080:	ffff ffff 			@ <UNDEFINED> instruction: 0xffffffff
1fff3084:	ffff ffff 			@ <UNDEFINED> instruction: 0xffffffff
1fff3088:	ffff ffff 			@ <UNDEFINED> instruction: 0xffffffff
1fff308c:	ffff ffff 			@ <UNDEFINED> instruction: 0xffffffff
1fff3090:	ffff ffff 			@ <UNDEFINED> instruction: 0xffffffff
1fff3094:	ffff ffff 			@ <UNDEFINED> instruction: 0xffffffff
1fff3098:	ffff ffff 			@ <UNDEFINED> instruction: 0xffffffff
1fff309c:	ffff ffff 			@ <UNDEFINED> instruction: 0xffffffff
1fff30a0:	ffff ffff 			@ <UNDEFINED> instruction: 0xffffffff
1fff30a4:	ffff ffff 			@ <UNDEFINED> instruction: 0xffffffff
1fff30a8:	ffff ffff 			@ <UNDEFINED> instruction: 0xffffffff
1fff30ac:	ffff ffff 			@ <UNDEFINED> instruction: 0xffffffff
1fff30b0:	ffff ffff 			@ <UNDEFINED> instruction: 0xffffffff
1fff30b4:	ffff ffff 			@ <UNDEFINED> instruction: 0xffffffff
1fff30b8:	ffff ffff 			@ <UNDEFINED> instruction: 0xffffffff
1fff30bc:	ffff ffff 			@ <UNDEFINED> instruction: 0xffffffff
1fff30c0:	ffff ffff 			@ <UNDEFINED> instruction: 0xffffffff
1fff30c4:	ffff ffff 			@ <UNDEFINED> instruction: 0xffffffff
1fff30c8:	ffff ffff 			@ <UNDEFINED> instruction: 0xffffffff
1fff30cc:	ffff ffff 			@ <UNDEFINED> instruction: 0xffffffff
1fff30d0:	ffff ffff 			@ <UNDEFINED> instruction: 0xffffffff
1fff30d4:	ffff ffff 			@ <UNDEFINED> instruction: 0xffffffff
1fff30d8:	ffff ffff 			@ <UNDEFINED> instruction: 0xffffffff
1fff30dc:	ffff ffff 			@ <UNDEFINED> instruction: 0xffffffff
1fff30e0:	ffff ffff 			@ <UNDEFINED> instruction: 0xffffffff
1fff30e4:	ffff ffff 			@ <UNDEFINED> instruction: 0xffffffff
1fff30e8:	ffff ffff 			@ <UNDEFINED> instruction: 0xffffffff
1fff30ec:	ffff ffff 			@ <UNDEFINED> instruction: 0xffffffff
1fff30f0:	ffff ffff 			@ <UNDEFINED> instruction: 0xffffffff
1fff30f4:	ffff ffff 			@ <UNDEFINED> instruction: 0xffffffff
1fff30f8:	ffff ffff 			@ <UNDEFINED> instruction: 0xffffffff
1fff30fc:	ffff ffff 			@ <UNDEFINED> instruction: 0xffffffff
1fff3100:	d8aa      	bhi.n	0x1fff3058
1fff3102:	2755      	movs	r7, #85	@ 0x55
1fff3104:	ffff ffff 			@ <UNDEFINED> instruction: 0xffffffff
1fff3108:	001f      	movs	r7, r3
1fff310a:	ffe0 ffff 			@ <UNDEFINED> instruction: 0xffe0ffff
1fff310e:	ffff ffff 			@ <UNDEFINED> instruction: 0xffffffff
1fff3112:	ffff ffff 			@ <UNDEFINED> instruction: 0xffffffff
1fff3116:	ffff ffff 			@ <UNDEFINED> instruction: 0xffffffff
1fff311a:	0000      	movs	r0, r0
1fff311c:	ffff ffff 			@ <UNDEFINED> instruction: 0xffffffff
1fff3120:	ffff ffff 			@ <UNDEFINED> instruction: 0xffffffff
1fff3124:	ffff ffff 			@ <UNDEFINED> instruction: 0xffffffff
1fff3128:	ffff ffff 			@ <UNDEFINED> instruction: 0xffffffff
1fff312c:	ffff ffff 			@ <UNDEFINED> instruction: 0xffffffff
1fff3130:	ffff ffff 			@ <UNDEFINED> instruction: 0xffffffff
1fff3134:	ffff ffff 			@ <UNDEFINED> instruction: 0xffffffff
1fff3138:	ffff ffff 			@ <UNDEFINED> instruction: 0xffffffff
1fff313c:	ffff ffff 			@ <UNDEFINED> instruction: 0xffffffff
1fff3140:	ffff ffff 			@ <UNDEFINED> instruction: 0xffffffff
1fff3144:	ffff ffff 			@ <UNDEFINED> instruction: 0xffffffff
1fff3148:	ffff ffff 			@ <UNDEFINED> instruction: 0xffffffff
1fff314c:	ffff ffff 			@ <UNDEFINED> instruction: 0xffffffff
1fff3150:	ffff ffff 			@ <UNDEFINED> instruction: 0xffffffff
1fff3154:	ffff ffff 			@ <UNDEFINED> instruction: 0xffffffff
1fff3158:	ffff ffff 			@ <UNDEFINED> instruction: 0xffffffff
1fff315c:	ffff ffff 			@ <UNDEFINED> instruction: 0xffffffff
1fff3160:	ffff ffff 			@ <UNDEFINED> instruction: 0xffffffff
1fff3164:	ffff ffff 			@ <UNDEFINED> instruction: 0xffffffff
1fff3168:	ffff ffff 			@ <UNDEFINED> instruction: 0xffffffff
1fff316c:	ffff ffff 			@ <UNDEFINED> instruction: 0xffffffff
1fff3170:	ffff ffff 			@ <UNDEFINED> instruction: 0xffffffff
1fff3174:	ffff ffff 			@ <UNDEFINED> instruction: 0xffffffff
1fff3178:	ffff ffff 			@ <UNDEFINED> instruction: 0xffffffff
1fff317c:	ffff ffff 			@ <UNDEFINED> instruction: 0xffffffff
1fff3180:	ffff ffff 			@ <UNDEFINED> instruction: 0xffffffff
1fff3184:	ffff ffff 			@ <UNDEFINED> instruction: 0xffffffff
1fff3188:	ffff ffff 			@ <UNDEFINED> instruction: 0xffffffff
1fff318c:	ffff ffff 			@ <UNDEFINED> instruction: 0xffffffff
1fff3190:	ffff ffff 			@ <UNDEFINED> instruction: 0xffffffff
1fff3194:	ffff ffff 			@ <UNDEFINED> instruction: 0xffffffff
1fff3198:	ffff ffff 			@ <UNDEFINED> instruction: 0xffffffff
1fff319c:	ffff ffff 			@ <UNDEFINED> instruction: 0xffffffff
1fff31a0:	ffff ffff 			@ <UNDEFINED> instruction: 0xffffffff
1fff31a4:	ffff ffff 			@ <UNDEFINED> instruction: 0xffffffff
1fff31a8:	ffff ffff 			@ <UNDEFINED> instruction: 0xffffffff
1fff31ac:	ffff ffff 			@ <UNDEFINED> instruction: 0xffffffff
1fff31b0:	ffff ffff 			@ <UNDEFINED> instruction: 0xffffffff
1fff31b4:	ffff ffff 			@ <UNDEFINED> instruction: 0xffffffff
1fff31b8:	ffff ffff 			@ <UNDEFINED> instruction: 0xffffffff
1fff31bc:	ffff ffff 			@ <UNDEFINED> instruction: 0xffffffff
1fff31c0:	ffff ffff 			@ <UNDEFINED> instruction: 0xffffffff
1fff31c4:	ffff ffff 			@ <UNDEFINED> instruction: 0xffffffff
1fff31c8:	ffff ffff 			@ <UNDEFINED> instruction: 0xffffffff
1fff31cc:	ffff ffff 			@ <UNDEFINED> instruction: 0xffffffff
1fff31d0:	ffff ffff 			@ <UNDEFINED> instruction: 0xffffffff
1fff31d4:	ffff ffff 			@ <UNDEFINED> instruction: 0xffffffff
1fff31d8:	ffff ffff 			@ <UNDEFINED> instruction: 0xffffffff
1fff31dc:	ffff ffff 			@ <UNDEFINED> instruction: 0xffffffff
1fff31e0:	ffff ffff 			@ <UNDEFINED> instruction: 0xffffffff
1fff31e4:	ffff ffff 			@ <UNDEFINED> instruction: 0xffffffff
1fff31e8:	ffff ffff 			@ <UNDEFINED> instruction: 0xffffffff
1fff31ec:	ffff ffff 			@ <UNDEFINED> instruction: 0xffffffff
1fff31f0:	ffff ffff 			@ <UNDEFINED> instruction: 0xffffffff
1fff31f4:	ffff ffff 			@ <UNDEFINED> instruction: 0xffffffff
1fff31f8:	ffff ffff 			@ <UNDEFINED> instruction: 0xffffffff
1fff31fc:	ffff ffff 			@ <UNDEFINED> instruction: 0xffffffff
1fff3200:	0ee8      	lsrs	r0, r5, #27
1fff3202:	0000      	movs	r0, r0
1fff3204:	ffff ffff 			@ <UNDEFINED> instruction: 0xffffffff
1fff3208:	2eeb      	cmp	r6, #235	@ 0xeb
1fff320a:	0000      	movs	r0, r0
1fff320c:	ffff ffff 			@ <UNDEFINED> instruction: 0xffffffff
1fff3210:	50eb      	str	r3, [r5, r3]
1fff3212:	0000      	movs	r0, r0
1fff3214:	ffff ffff 			@ <UNDEFINED> instruction: 0xffffffff
1fff3218:	711b      	strb	r3, [r3, #4]
1fff321a:	0000      	movs	r0, r0
1fff321c:	ffff ffff 			@ <UNDEFINED> instruction: 0xffffffff
1fff3220:	911f      	str	r1, [sp, #124]	@ 0x7c
1fff3222:	0000      	movs	r0, r0
1fff3224:	ffff ffff 			@ <UNDEFINED> instruction: 0xffffffff
1fff3228:	03b1      	lsls	r1, r6, #14
1fff322a:	0000      	movs	r0, r0
1fff322c:	ffff ffff 			@ <UNDEFINED> instruction: 0xffffffff
1fff3230:	046b      	lsls	r3, r5, #17
1fff3232:	0000      	movs	r0, r0
1fff3234:	ffff ffff 			@ <UNDEFINED> instruction: 0xffffffff
1fff3238:	1e1e      	subs	r6, r3, #0
1fff323a:	0048      	lsls	r0, r1, #1
1fff323c:	ffff ffff 			@ <UNDEFINED> instruction: 0xffffffff
1fff3240:	001e      	movs	r6, r3
1fff3242:	0120      	lsls	r0, r4, #4
1fff3244:	ffff ffff 			@ <UNDEFINED> instruction: 0xffffffff
1fff3248:	36b0      	adds	r6, #176	@ 0xb0
1fff324a:	0000      	movs	r0, r0
1fff324c:	ffff ffff 			@ <UNDEFINED> instruction: 0xffffffff
1fff3250:	36b0      	adds	r6, #176	@ 0xb0
1fff3252:	0000      	movs	r0, r0
1fff3254:	ffff ffff 			@ <UNDEFINED> instruction: 0xffffffff
1fff3258:	0fa0      	lsrs	r0, r4, #30
1fff325a:	0320      	lsls	r0, r4, #12
1fff325c:	ffff ffff 			@ <UNDEFINED> instruction: 0xffffffff
1fff3260:	3c3c      	subs	r4, #60	@ 0x3c
1fff3262:	0090      	lsls	r0, r2, #2
1fff3264:	ffff ffff 			@ <UNDEFINED> instruction: 0xffffffff
1fff3268:	003c      	movs	r4, r7
1fff326a:	0240      	lsls	r0, r0, #9
1fff326c:	ffff ffff 			@ <UNDEFINED> instruction: 0xffffffff
1fff3270:	6d60      	ldr	r0, [r4, #84]	@ 0x54
1fff3272:	0000      	movs	r0, r0
1fff3274:	ffff ffff 			@ <UNDEFINED> instruction: 0xffffffff
1fff3278:	6d60      	ldr	r0, [r4, #84]	@ 0x54
1fff327a:	0000      	movs	r0, r0
1fff327c:	ffff ffff 			@ <UNDEFINED> instruction: 0xffffffff
1fff3280:	1f40      	subs	r0, r0, #5
1fff3282:	0640      	lsls	r0, r0, #25
1fff3284:	ffff ffff 			@ <UNDEFINED> instruction: 0xffffffff
1fff3288:	7878      	ldrb	r0, [r7, #1]
1fff328a:	0120      	lsls	r0, r4, #4
1fff328c:	ffff ffff 			@ <UNDEFINED> instruction: 0xffffffff
1fff3290:	0078      	lsls	r0, r7, #1
1fff3292:	0480      	lsls	r0, r0, #18
1fff3294:	ffff ffff 			@ <UNDEFINED> instruction: 0xffffffff
1fff3298:	dac0      	bge.n	0x1fff321c
1fff329a:	0000      	movs	r0, r0
1fff329c:	ffff ffff 			@ <UNDEFINED> instruction: 0xffffffff
1fff32a0:	dac0      	bge.n	0x1fff3224
1fff32a2:	0000      	movs	r0, r0
1fff32a4:	ffff ffff 			@ <UNDEFINED> instruction: 0xffffffff
1fff32a8:	3e80      	subs	r6, #128	@ 0x80
1fff32aa:	0c80      	lsrs	r0, r0, #18
1fff32ac:	ffff ffff 			@ <UNDEFINED> instruction: 0xffffffff
1fff32b0:	a6a6      	add	r6, pc, #664	@ (adr r6, 0x1fff354c)
1fff32b2:	018f      	lsls	r7, r1, #6
1fff32b4:	ffff ffff 			@ <UNDEFINED> instruction: 0xffffffff
1fff32b8:	00a6      	lsls	r6, r4, #2
1fff32ba:	0639      	lsls	r1, r7, #24
1fff32bc:	ffff ffff 			@ <UNDEFINED> instruction: 0xffffffff
1fff32c0:	2e6c      	cmp	r6, #108	@ 0x6c
1fff32c2:	0001      	movs	r1, r0
1fff32c4:	ffff ffff 			@ <UNDEFINED> instruction: 0xffffffff
1fff32c8:	2e6c      	cmp	r6, #108	@ 0x6c
1fff32ca:	0001      	movs	r1, r0
1fff32cc:	ffff ffff 			@ <UNDEFINED> instruction: 0xffffffff
1fff32d0:	5668      	ldrsb	r0, [r5, r1]
1fff32d2:	1148      	asrs	r0, r1, #5
1fff32d4:	ffff ffff 			@ <UNDEFINED> instruction: 0xffffffff
1fff32d8:	b4b4      	push	{r2, r4, r5, r7}
1fff32da:	01b0      	lsls	r0, r6, #6
1fff32dc:	ffff ffff 			@ <UNDEFINED> instruction: 0xffffffff
1fff32e0:	00b4      	lsls	r4, r6, #2
1fff32e2:	06c0      	lsls	r0, r0, #27
1fff32e4:	ffff ffff 			@ <UNDEFINED> instruction: 0xffffffff
1fff32e8:	4820      	ldr	r0, [pc, #128]	@ (0x1fff336c)
1fff32ea:	0001      	movs	r1, r0
1fff32ec:	ffff ffff 			@ <UNDEFINED> instruction: 0xffffffff
1fff32f0:	4820      	ldr	r0, [pc, #128]	@ (0x1fff3374)
1fff32f2:	0001      	movs	r1, r0
1fff32f4:	ffff ffff 			@ <UNDEFINED> instruction: 0xffffffff
1fff32f8:	5dc0      	ldrb	r0, [r0, r7]
1fff32fa:	12c0      	asrs	r0, r0, #11
1fff32fc:	ffff ffff 			@ <UNDEFINED> instruction: 0xffffffff
1fff3300:	aa55      	add	r2, sp, #340	@ 0x154
1fff3302:	55aa      	strb	r2, [r5, r6]
1fff3304:	ffff ffff 			@ <UNDEFINED> instruction: 0xffffffff
1fff3308:	55aa      	strb	r2, [r5, r6]
1fff330a:	aa55      	add	r2, sp, #340	@ 0x154
1fff330c:	ffff ffff 			@ <UNDEFINED> instruction: 0xffffffff
1fff3310:	aa55      	add	r2, sp, #340	@ 0x154
1fff3312:	55aa      	strb	r2, [r5, r6]
1fff3314:	ffff ffff 			@ <UNDEFINED> instruction: 0xffffffff
1fff3318:	55aa      	strb	r2, [r5, r6]
1fff331a:	aa55      	add	r2, sp, #340	@ 0x154
1fff331c:	ffff ffff 			@ <UNDEFINED> instruction: 0xffffffff
1fff3320:	0001      	movs	r1, r0
1fff3322:	fffe ffff 			@ <UNDEFINED> instruction: 0xfffeffff
1fff3326:	ffff 3888 	vtbl.8	d19, {d31}, d8
1fff332a:	c777      	stmia	r7!, {r0, r1, r2, r4, r5, r6}
1fff332c:	ffff ffff 			@ <UNDEFINED> instruction: 0xffffffff
1fff3330:	ffff ffff 			@ <UNDEFINED> instruction: 0xffffffff
1fff3334:	ffff ffff 			@ <UNDEFINED> instruction: 0xffffffff
1fff3338:	ffff ffff 			@ <UNDEFINED> instruction: 0xffffffff
1fff333c:	ffff ffff 			@ <UNDEFINED> instruction: 0xffffffff
1fff3340:	2ee5      	cmp	r6, #229	@ 0xe5
1fff3342:	d11a      	bne.n	0x1fff337a
1fff3344:	ffff ffff 			@ <UNDEFINED> instruction: 0xffffffff
1fff3348:	00fb      	lsls	r3, r7, #3
1fff334a:	ff04 ffff 	vmaxnm.f32	<illegal reg q7.5>, q10, <illegal reg q15.5>
1fff334e:	ffff 0000 	vaddl.u<illegal width 64>	q8, d15, d0
1fff3352:	ffff ffff 			@ <UNDEFINED> instruction: 0xffffffff
1fff3356:	ffff 0002 	vaddl.u<illegal width 64>	q8, d15, d2
1fff335a:	fffd ffff 			@ <UNDEFINED> instruction: 0xfffdffff
1fff335e:	ffff 0000 	vaddl.u<illegal width 64>	q8, d15, d0
1fff3362:	ffff ffff 			@ <UNDEFINED> instruction: 0xffffffff
1fff3366:	ffff ffff 			@ <UNDEFINED> instruction: 0xffffffff
1fff336a:	ffff ffff 			@ <UNDEFINED> instruction: 0xffffffff
1fff336e:	ffff 1a1e 	vshll.u32	<illegal reg q8.5>, d14, #31
1fff3372:	e5e1      	b.n	0x1fff2f38
1fff3374:	ffff ffff 			@ <UNDEFINED> instruction: 0xffffffff
1fff3378:	03f8      	lsls	r0, r7, #15
1fff337a:	fc07 ffff 	stc2	15, cr15, [r7], {255}	@ 0xff
1fff337e:	ffff 0090 	vshr.u64	d16, d0, #1
1fff3382:	ff6f ffff 	vminnm.f32	<illegal reg q15.5>, <illegal reg q15.5>, <illegal reg q15.5>
1fff3386:	ffff 0000 	vaddl.u<illegal width 64>	q8, d15, d0
1fff338a:	ffff ffff 			@ <UNDEFINED> instruction: 0xffffffff
1fff338e:	ffff 03cd 			@ <UNDEFINED> instruction: 0xffff03cd
1fff3392:	fc32 ffff 	ldc2	15, cr15, [r2], #-1020	@ 0xfffffc04
1fff3396:	ffff 0089 	vaddl.u<illegal width 64>	q8, d31, d9
1fff339a:	ff76 ffff 	vminnm.f16	<illegal reg q15.5>, q11, <illegal reg q15.5>
1fff339e:	ffff 000f 	vaddl.u<illegal width 64>	q8, d15, d15
1fff33a2:	fff0 ffff 			@ <UNDEFINED> instruction: 0xfff0ffff
1fff33a6:	ffff 03b1 	vrsra.u64	d16, d17, #1
1fff33aa:	fc4e ffff 	mcrr2	15, 15, pc, lr, cr15	@ <UNPREDICTABLE>
1fff33ae:	ffff 046b 	vmls.i<illegal width 64>	q8, <illegal reg q7.5>, d27[0]
1fff33b2:	fb94 ffff 	sdiv	pc, r4, pc
1fff33b6:	ffff 0064 	vmla.i<illegal width 64>	q8, <illegal reg q7.5>, d20[0]
1fff33ba:	ff9b ffff 			@ <UNDEFINED> instruction: 0xff9bffff
1fff33be:	ffff 0000 	vaddl.u<illegal width 64>	q8, d15, d0
1fff33c2:	ffff ffff 			@ <UNDEFINED> instruction: 0xffffffff
1fff33c6:	ffff 0000 	vaddl.u<illegal width 64>	q8, d15, d0
1fff33ca:	ffff ffff 			@ <UNDEFINED> instruction: 0xffffffff
1fff33ce:	ffff ffff 			@ <UNDEFINED> instruction: 0xffffffff
1fff33d2:	ffff ffff 			@ <UNDEFINED> instruction: 0xffffffff
1fff33d6:	ffff ffff 			@ <UNDEFINED> instruction: 0xffffffff
1fff33da:	ffff ffff 			@ <UNDEFINED> instruction: 0xffffffff
1fff33de:	ffff ffff 			@ <UNDEFINED> instruction: 0xffffffff
1fff33e2:	ffff ffff 			@ <UNDEFINED> instruction: 0xffffffff
1fff33e6:	ffff ffff 			@ <UNDEFINED> instruction: 0xffffffff
1fff33ea:	ffff ffff 			@ <UNDEFINED> instruction: 0xffffffff
1fff33ee:	ffff 8061 	vmla.i<illegal width 64>	q12, <illegal reg q7.5>, d17[0]
1fff33f2:	0618      	lsls	r0, r3, #24
1fff33f4:	ffff ffff 			@ <UNDEFINED> instruction: 0xffffffff
1fff33f8:	0fff      	lsrs	r7, r7, #31
1fff33fa:	f000 ffff 	bl	0x1fff43fc
1fff33fe:	Address 0x1fff33fe is out of bounds.

